(dp1
S'output'
p2
S"<type 'exceptions.ValueError'> invalid literal for float(): 400ghc"
p3
sS'layer'
p4
S'/Users/zadok/Desktop/Codetrain/web2py.app/Contents/Resources/applications/loanTracker/controllers/default.py'
p5
sS'code'
p6
S'<code object <module> at 0x10c5dcb30, file "/Users/zadok/Desktop/Codetrain/web2py.app/Contents/Resources/applications/loanTracker/controllers/default.py", line 2>'
p7
sS'snapshot'
p8
(dp9
S'exception'
p10
(dp11
S'__getslice__'
p12
S"<method-wrapper '__getslice__' of exceptions.ValueError object>"
p13
sS'__str__'
p14
S"<method-wrapper '__str__' of exceptions.ValueError object>"
p15
sS'__reduce__'
p16
S'<built-in method __reduce__ of exceptions.ValueError object>'
p17
sS'__dict__'
p18
S'{}'
p19
sS'message'
p20
S"'invalid literal for float(): 400ghc'"
p21
sS'__sizeof__'
p22
S'<built-in method __sizeof__ of exceptions.ValueError object>'
p23
sS'__init__'
p24
S"<method-wrapper '__init__' of exceptions.ValueError object>"
p25
sS'__setattr__'
p26
S"<method-wrapper '__setattr__' of exceptions.ValueError object>"
p27
sS'__reduce_ex__'
p28
S'<built-in method __reduce_ex__ of exceptions.ValueError object>'
p29
sS'__new__'
p30
S'<built-in method __new__ of type object>'
p31
sS'__format__'
p32
S'<built-in method __format__ of exceptions.ValueError object>'
p33
sS'__class__'
p34
S"<type 'exceptions.ValueError'>"
p35
sS'__doc__'
p36
S"'Inappropriate argument value (of correct type).'"
p37
sS'__getitem__'
p38
S"<method-wrapper '__getitem__' of exceptions.ValueError object>"
p39
sS'__setstate__'
p40
S'<built-in method __setstate__ of exceptions.ValueError object>'
p41
sS'__getattribute__'
p42
S"<method-wrapper '__getattribute__' of exceptions.ValueError object>"
p43
sS'args'
p44
S"('invalid literal for float(): 400ghc',)"
p45
sS'__subclasshook__'
p46
S'<built-in method __subclasshook__ of type object>'
p47
sS'__unicode__'
p48
S'<built-in method __unicode__ of exceptions.ValueError object>'
p49
sS'__delattr__'
p50
S"<method-wrapper '__delattr__' of exceptions.ValueError object>"
p51
sS'__repr__'
p52
S"<method-wrapper '__repr__' of exceptions.ValueError object>"
p53
sS'__hash__'
p54
S"<method-wrapper '__hash__' of exceptions.ValueError object>"
p55
ssS'evalue'
p56
S'invalid literal for float(): 400ghc'
p57
sS'request'
p58
cgluon.html
XML_unpickle
p59
(S's\xf3a\x00\x00<div><table><tr><td style="font-weight:bold;vertical-align:top;">ajax</td><td style="vertical-align:top;">:</td><td><div>False</div></td></tr><tr><td style="font-weight:bold;vertical-align:top;">application</td><td style="vertical-align:top;">:</td><td><div>loanTracker</div></td></tr><tr><td style="font-weight:bold;vertical-align:top;">args</td><td style="vertical-align:top;">:</td><td><div><table></table></div></td></tr><tr><td style="font-weight:bold;vertical-align:top;">cid</td><td style="vertical-align:top;">:</td><td><div>None</div></td></tr><tr><td style="font-weight:bold;vertical-align:top;">client</td><td style="vertical-align:top;">:</td><td><div>127.0.0.1</div></td></tr><tr><td style="font-weight:bold;vertical-align:top;">controller</td><td style="vertical-align:top;">:</td><td><div>default</div></td></tr><tr><td style="font-weight:bold;vertical-align:top;">cookies</td><td style="vertical-align:top;">:</td><td><div><table><tr><td style="font-weight:bold;vertical-align:top;">session_id_admin</td><td style="vertical-align:top;">:</td><td><div>127.0.0.1-c7e0bd0c-edef-4bc0-b2d7-920c2993bba3<table><tr><td style="font-weight:bold;vertical-align:top;">comment</td><td style="vertical-align:top;">:</td><td><div></div></td></tr><tr><td style="font-weight:bold;vertical-align:top;">domain</td><td style="vertical-align:top;">:</td><td><div></div></td></tr><tr><td style="font-weight:bold;vertical-align:top;">expires</td><td style="vertical-align:top;">:</td><td><div></div></td></tr><tr><td style="font-weight:bold;vertical-align:top;">httponly</td><td style="vertical-align:top;">:</td><td><div></div></td></tr><tr><td style="font-weight:bold;vertical-align:top;">max-age</td><td style="vertical-align:top;">:</td><td><div></div></td></tr><tr><td style="font-weight:bold;vertical-align:top;">path</td><td style="vertical-align:top;">:</td><td><div></div></td></tr><tr><td style="font-weight:bold;vertical-align:top;">samesite</td><td style="vertical-align:top;">:</td><td><div></div></td></tr><tr><td style="font-weight:bold;vertical-align:top;">secure</td><td style="vertical-align:top;">:</td><td><div></div></td></tr><tr><td style="font-weight:bold;vertical-align:top;">version</td><td style="vertical-align:top;">:</td><td><div></div></td></tr></table></div></td></tr><tr><td style="font-weight:bold;vertical-align:top;">session_id_loantracker</td><td style="vertical-align:top;">:</td><td><div>127.0.0.1-ea431919-31b3-4d9c-b2f0-467d179d990f<table><tr><td style="font-weight:bold;vertical-align:top;">comment</td><td style="vertical-align:top;">:</td><td><div></div></td></tr><tr><td style="font-weight:bold;vertical-align:top;">domain</td><td style="vertical-align:top;">:</td><td><div></div></td></tr><tr><td style="font-weight:bold;vertical-align:top;">expires</td><td style="vertical-align:top;">:</td><td><div></div></td></tr><tr><td style="font-weight:bold;vertical-align:top;">httponly</td><td style="vertical-align:top;">:</td><td><div></div></td></tr><tr><td style="font-weight:bold;vertical-align:top;">max-age</td><td style="vertical-align:top;">:</td><td><div></div></td></tr><tr><td style="font-weight:bold;vertical-align:top;">path</td><td style="vertical-align:top;">:</td><td><div></div></td></tr><tr><td style="font-weight:bold;vertical-align:top;">samesite</td><td style="vertical-align:top;">:</td><td><div></div></td></tr><tr><td style="font-weight:bold;vertical-align:top;">secure</td><td style="vertical-align:top;">:</td><td><div></div></td></tr><tr><td style="font-weight:bold;vertical-align:top;">version</td><td style="vertical-align:top;">:</td><td><div></div></td></tr></table></div></td></tr><tr><td style="font-weight:bold;vertical-align:top;">session_id_welcome</td><td style="vertical-align:top;">:</td><td><div>127.0.0.1-0b152b8f-2270-42a8-b2b7-e2c2ef539783<table><tr><td style="font-weight:bold;vertical-align:top;">comment</td><td style="vertical-align:top;">:</td><td><div></div></td></tr><tr><td style="font-weight:bold;vertical-align:top;">domain</td><td style="vertical-align:top;">:</td><td><div></div></td></tr><tr><td style="font-weight:bold;vertical-align:top;">expires</td><td style="vertical-align:top;">:</td><td><div></div></td></tr><tr><td style="font-weight:bold;vertical-align:top;">httponly</td><td style="vertical-align:top;">:</td><td><div></div></td></tr><tr><td style="font-weight:bold;vertical-align:top;">max-age</td><td style="vertical-align:top;">:</td><td><div></div></td></tr><tr><td style="font-weight:bold;vertical-align:top;">path</td><td style="vertical-align:top;">:</td><td><div></div></td></tr><tr><td style="font-weight:bold;vertical-align:top;">samesite</td><td style="vertical-align:top;">:</td><td><div></div></td></tr><tr><td style="font-weight:bold;vertical-align:top;">secure</td><td style="vertical-align:top;">:</td><td><div></div></td></tr><tr><td style="font-weight:bold;vertical-align:top;">version</td><td style="vertical-align:top;">:</td><td><div></div></td></tr></table></div></td></tr></table></div></td></tr><tr><td style="font-weight:bold;vertical-align:top;">env</td><td style="vertical-align:top;">:</td><td><div><table><tr><td style="font-weight:bold;vertical-align:top;">HTTP_ACCEPT</td><td style="vertical-align:top;">:</td><td><div>text/html,application/xhtml+xml,application/xml;q=0.9,*/*;q=0.8</div></td></tr><tr><td style="font-weight:bold;vertical-align:top;">HTTP_ACCEPT_ENCODING</td><td style="vertical-align:top;">:</td><td><div>gzip, deflate</div></td></tr><tr><td style="font-weight:bold;vertical-align:top;">HTTP_ACCEPT_LANGUAGE</td><td style="vertical-align:top;">:</td><td><div>en-us</div></td></tr><tr><td style="font-weight:bold;vertical-align:top;">HTTP_CONNECTION</td><td style="vertical-align:top;">:</td><td><div>keep-alive</div></td></tr><tr><td style="font-weight:bold;vertical-align:top;">HTTP_COOKIE</td><td style="vertical-align:top;">:</td><td><div>session_id_loantracker=127.0.0.1-ea431919-31b3-4d9c-b2f0-467d179d990f; session_id_admin=127.0.0.1-c7e0bd0c-edef-4bc0-b2d7-920c2993bba3; session_id_welcome=127.0.0.1-0b152b8f-2270-42a8-b2b7-e2c2ef539783</div></td></tr><tr><td style="font-weight:bold;vertical-align:top;">HTTP_DNT</td><td style="vertical-align:top;">:</td><td><div>1</div></td></tr><tr><td style="font-weight:bold;vertical-align:top;">HTTP_HOST</td><td style="vertical-align:top;">:</td><td><div>127.0.0.1:8000</div></td></tr><tr><td style="font-weight:bold;vertical-align:top;">HTTP_REFERER</td><td style="vertical-align:top;">:</td><td><div>http://127.0.0.1:8000/loanTracker/default/index</div></td></tr><tr><td style="font-weight:bold;vertical-align:top;">HTTP_UPGRADE_INSECURE_REQUESTS</td><td style="vertical-align:top;">:</td><td><div>1</div></td></tr><tr><td style="font-weight:bold;vertical-align:top;">HTTP_USER_AGENT</td><td style="vertical-align:top;">:</td><td><div>Mozilla/5.0 (Macintosh; Intel Mac OS X 10_13) AppleWebKit/604.1.38 (KHTML, like Gecko) Version/11.0 Safari/604.1.38</div></td></tr><tr><td style="font-weight:bold;vertical-align:top;">PATH_INFO</td><td style="vertical-align:top;">:</td><td><div>/loanTracker/default/index</div></td></tr><tr><td style="font-weight:bold;vertical-align:top;">QUERY_STRING</td><td style="vertical-align:top;">:</td><td><div></div></td></tr><tr><td style="font-weight:bold;vertical-align:top;">REMOTE_ADDR</td><td style="vertical-align:top;">:</td><td><div>127.0.0.1</div></td></tr><tr><td style="font-weight:bold;vertical-align:top;">REMOTE_PORT</td><td style="vertical-align:top;">:</td><td><div>50604</div></td></tr><tr><td style="font-weight:bold;vertical-align:top;">REQUEST_METHOD</td><td style="vertical-align:top;">:</td><td><div>GET</div></td></tr><tr><td style="font-weight:bold;vertical-align:top;">SCRIPT_NAME</td><td style="vertical-align:top;">:</td><td><div></div></td></tr><tr><td style="font-weight:bold;vertical-align:top;">SERVER_NAME</td><td style="vertical-align:top;">:</td><td><div>Zadoks-MacBook-Pro.local</div></td></tr><tr><td style="font-weight:bold;vertical-align:top;">SERVER_PORT</td><td style="vertical-align:top;">:</td><td><div>8000</div></td></tr><tr><td style="font-weight:bold;vertical-align:top;">SERVER_PROTOCOL</td><td style="vertical-align:top;">:</td><td><div>HTTP/1.1</div></td></tr><tr><td style="font-weight:bold;vertical-align:top;">SERVER_SOFTWARE</td><td style="vertical-align:top;">:</td><td><div>Rocket 1.2.6</div></td></tr><tr><td style="font-weight:bold;vertical-align:top;">app_folders</td><td style="vertical-align:top;">:</td><td><div>set([&#x27;/Users/zadok/Desktop/Codetrain/web2py.app/Contents/Resources/applications/welcome/&#x27;, &#x27;/Users/zadok/Desktop/Codetrain/web2py.app/Contents/Resources/applications/admin/&#x27;, &#x27;/Users/zadok/Desktop/Codetrain/web2py.app/Contents/Resources/applications/loanTracker/&#x27;])</div></td></tr><tr><td style="font-weight:bold;vertical-align:top;">applications_parent</td><td style="vertical-align:top;">:</td><td><div>/Users/zadok/Desktop/Codetrain/web2py.app/Contents/Resources</div></td></tr><tr><td style="font-weight:bold;vertical-align:top;">cmd_args</td><td style="vertical-align:top;">:</td><td><div><table></table></div></td></tr><tr><td style="font-weight:bold;vertical-align:top;">cmd_options</td><td style="vertical-align:top;">:</td><td><div>&lt;Values at 0x104ecc320: {&#x27;verbose&#x27;: False, &#x27;ip&#x27;: &#x27;127.0.0.1&#x27;, &#x27;debuglevel&#x27;: 30, &#x27;with_scheduler&#x27;: False, &#x27;shutdown_timeout&#x27;: 5, &#x27;taskbar&#x27;: False, &#x27;with_coverage&#x27;: False, &#x27;pid_filename&#x27;: &#x27;httpserver.pid&#x27;, &#x27;maxthreads&#x27;: None, &#x27;softcron&#x27;: False, &#x27;server_name&#x27;: &#x27;Zadoks-MacBook-Pro.local&#x27;, &#x27;bpython&#x27;: False, &#x27;nogui&#x27;: False, &#x27;port&#x27;: 8000, &#x27;print_errors&#x27;: False, &#x27;extcron&#x27;: False, &#x27;runcron&#x27;: False, &#x27;run_system_tests&#x27;: False, &#x27;test&#x27;: None, &#x27;folder&#x27;: &#x27;/Users/zadok/Desktop/Codetrain/web2py.app/Contents/Resources&#x27;, &#x27;config&#x27;: &#x27;&#x27;, &#x27;minthreads&#x27;: None, &#x27;shell&#x27;: None, &#x27;run&#x27;: &#x27;&#x27;, &#x27;log_filename&#x27;: &#x27;httpserver.log&#x27;, &#x27;profiler_dir&#x27;: None, &#x27;args&#x27;: [&#x27;&#x27;], &#x27;socket_timeout&#x27;: 5, &#x27;ssl_ca_certificate&#x27;: None, &#x27;scheduler&#x27;: None, &#x27;interfaces&#x27;: None, &#x27;ssl_private_key&#x27;: &#x27;&#x27;, &#x27;gae&#x27;: None, &#x27;password&#x27;: &#x27;******&#x27;, &#x27;request_queue_size&#x27;: 5, &#x27;ssl_certificate&#x27;: &#x27;&#x27;, &#x27;cronjob&#x27;: False, &#x27;numthreads&#x27;: None, &#x27;quiet&#x27;: False, &#x27;import_models&#x27;: False, &#x27;timeout&#x27;: 10, &#x27;plain&#x27;: False, &#x27;nobanner&#x27;: False}&gt;</div></td></tr><tr><td style="font-weight:bold;vertical-align:top;">db_sessions</td><td style="vertical-align:top;">:</td><td><div>set([])</div></td></tr><tr><td style="font-weight:bold;vertical-align:top;">debugging</td><td style="vertical-align:top;">:</td><td><div>False</div></td></tr><tr><td style="font-weight:bold;vertical-align:top;">gluon_parent</td><td style="vertical-align:top;">:</td><td><div>/Users/zadok/Desktop/Codetrain/web2py.app/Contents/Resources</div></td></tr><tr><td style="font-weight:bold;vertical-align:top;">http_accept</td><td style="vertical-align:top;">:</td><td><div>text/html,application/xhtml+xml,application/xml;q=0.9,*/*;q=0.8</div></td></tr><tr><td style="font-weight:bold;vertical-align:top;">http_accept_encoding</td><td style="vertical-align:top;">:</td><td><div>gzip, deflate</div></td></tr><tr><td style="font-weight:bold;vertical-align:top;">http_accept_language</td><td style="vertical-align:top;">:</td><td><div>en-us</div></td></tr><tr><td style="font-weight:bold;vertical-align:top;">http_connection</td><td style="vertical-align:top;">:</td><td><div>keep-alive</div></td></tr><tr><td style="font-weight:bold;vertical-align:top;">http_cookie</td><td style="vertical-align:top;">:</td><td><div>session_id_loantracker=127.0.0.1-ea431919-31b3-4d9c-b2f0-467d179d990f; session_id_admin=127.0.0.1-c7e0bd0c-edef-4bc0-b2d7-920c2993bba3; session_id_welcome=127.0.0.1-0b152b8f-2270-42a8-b2b7-e2c2ef539783</div></td></tr><tr><td style="font-weight:bold;vertical-align:top;">http_dnt</td><td style="vertical-align:top;">:</td><td><div>1</div></td></tr><tr><td style="font-weight:bold;vertical-align:top;">http_host</td><td style="vertical-align:top;">:</td><td><div>127.0.0.1:8000</div></td></tr><tr><td style="font-weight:bold;vertical-align:top;">http_referer</td><td style="vertical-align:top;">:</td><td><div>http://127.0.0.1:8000/loanTracker/default/index</div></td></tr><tr><td style="font-weight:bold;vertical-align:top;">http_upgrade_insecure_requests</td><td style="vertical-align:top;">:</td><td><div>1</div></td></tr><tr><td style="font-weight:bold;vertical-align:top;">http_user_agent</td><td style="vertical-align:top;">:</td><td><div>Mozilla/5.0 (Macintosh; Intel Mac OS X 10_13) AppleWebKit/604.1.38 (KHTML, like Gecko) Version/11.0 Safari/604.1.38</div></td></tr><tr><td style="font-weight:bold;vertical-align:top;">is_jython</td><td style="vertical-align:top;">:</td><td><div>False</div></td></tr><tr><td style="font-weight:bold;vertical-align:top;">is_py2</td><td style="vertical-align:top;">:</td><td><div>True</div></td></tr><tr><td style="font-weight:bold;vertical-align:top;">is_pypy</td><td style="vertical-align:top;">:</td><td><div>False</div></td></tr><tr><td style="font-weight:bold;vertical-align:top;">is_source</td><td style="vertical-align:top;">:</td><td><div>True</div></td></tr><tr><td style="font-weight:bold;vertical-align:top;">local_hosts</td><td style="vertical-align:top;">:</td><td><div><table><tr><td><div>::1</div></td></tr><tr><td><div>Zadoks-MacBook-Pro.local</div></td></tr><tr><td><div>::ffff:127.0.0.1</div></td></tr><tr><td><div>127.0.0.1</div></td></tr></table></div></td></tr><tr><td style="font-weight:bold;vertical-align:top;">path_info</td><td style="vertical-align:top;">:</td><td><div>/loanTracker/default/index</div></td></tr><tr><td style="font-weight:bold;vertical-align:top;">query_string</td><td style="vertical-align:top;">:</td><td><div></div></td></tr><tr><td style="font-weight:bold;vertical-align:top;">remote_addr</td><td style="vertical-align:top;">:</td><td><div>127.0.0.1</div></td></tr><tr><td style="font-weight:bold;vertical-align:top;">remote_port</td><td style="vertical-align:top;">:</td><td><div>50604</div></td></tr><tr><td style="font-weight:bold;vertical-align:top;">request_method</td><td style="vertical-align:top;">:</td><td><div>GET</div></td></tr><tr><td style="font-weight:bold;vertical-align:top;">request_uri</td><td style="vertical-align:top;">:</td><td><div>/loanTracker/default/index</div></td></tr><tr><td style="font-weight:bold;vertical-align:top;">script_name</td><td style="vertical-align:top;">:</td><td><div></div></td></tr><tr><td style="font-weight:bold;vertical-align:top;">server_name</td><td style="vertical-align:top;">:</td><td><div>Zadoks-MacBook-Pro.local</div></td></tr><tr><td style="font-weight:bold;vertical-align:top;">server_port</td><td style="vertical-align:top;">:</td><td><div>8000</div></td></tr><tr><td style="font-weight:bold;vertical-align:top;">server_protocol</td><td style="vertical-align:top;">:</td><td><div>HTTP/1.1</div></td></tr><tr><td style="font-weight:bold;vertical-align:top;">server_software</td><td style="vertical-align:top;">:</td><td><div>Rocket 1.2.6</div></td></tr><tr><td style="font-weight:bold;vertical-align:top;">web2py_original_uri</td><td style="vertical-align:top;">:</td><td><div>/loanTracker/default/index</div></td></tr><tr><td style="font-weight:bold;vertical-align:top;">web2py_path</td><td style="vertical-align:top;">:</td><td><div>/Users/zadok/Desktop/Codetrain/web2py.app/Contents/Resources</div></td></tr><tr><td style="font-weight:bold;vertical-align:top;">web2py_version</td><td style="vertical-align:top;">:</td><td><div>2.17.2-stable+timestamp.2018.10.06.18.54.02</div></td></tr><tr><td style="font-weight:bold;vertical-align:top;">wsgi.errors</td><td style="vertical-align:top;">:</td><td><div>&lt;open file &#x27;&lt;stderr&gt;&#x27;, mode &#x27;w&#x27; at 0x103e141e0&gt;</div></td></tr><tr><td style="font-weight:bold;vertical-align:top;">wsgi.file_wrapper</td><td style="vertical-align:top;">:</td><td><div>&lt;class wsgiref.util.FileWrapper at 0x104e406d0&gt;</div></td></tr><tr><td style="font-weight:bold;vertical-align:top;">wsgi.input</td><td style="vertical-align:top;">:</td><td><div>&lt;socket._fileobject object at 0x10c4bbe50&gt;</div></td></tr><tr><td style="font-weight:bold;vertical-align:top;">wsgi.multiprocess</td><td style="vertical-align:top;">:</td><td><div>False</div></td></tr><tr><td style="font-weight:bold;vertical-align:top;">wsgi.multithread</td><td style="vertical-align:top;">:</td><td><div>True</div></td></tr><tr><td style="font-weight:bold;vertical-align:top;">wsgi.run_once</td><td style="vertical-align:top;">:</td><td><div>False</div></td></tr><tr><td style="font-weight:bold;vertical-align:top;">wsgi.url_scheme</td><td style="vertical-align:top;">:</td><td><div>http</div></td></tr><tr><td style="font-weight:bold;vertical-align:top;">wsgi.version</td><td style="vertical-align:top;">:</td><td><div><table><tr><td><div>1</div></td></tr><tr><td><div>0</div></td></tr></table></div></td></tr><tr><td style="font-weight:bold;vertical-align:top;">wsgi_errors</td><td style="vertical-align:top;">:</td><td><div>&lt;open file &#x27;&lt;stderr&gt;&#x27;, mode &#x27;w&#x27; at 0x103e141e0&gt;</div></td></tr><tr><td style="font-weight:bold;vertical-align:top;">wsgi_file_wrapper</td><td style="vertical-align:top;">:</td><td><div>&lt;class wsgiref.util.FileWrapper at 0x104e406d0&gt;</div></td></tr><tr><td style="font-weight:bold;vertical-align:top;">wsgi_input</td><td style="vertical-align:top;">:</td><td><div>&lt;socket._fileobject object at 0x10c4bbe50&gt;</div></td></tr><tr><td style="font-weight:bold;vertical-align:top;">wsgi_multiprocess</td><td style="vertical-align:top;">:</td><td><div>False</div></td></tr><tr><td style="font-weight:bold;vertical-align:top;">wsgi_multithread</td><td style="vertical-align:top;">:</td><td><div>True</div></td></tr><tr><td style="font-weight:bold;vertical-align:top;">wsgi_run_once</td><td style="vertical-align:top;">:</td><td><div>False</div></td></tr><tr><td style="font-weight:bold;vertical-align:top;">wsgi_url_scheme</td><td style="vertical-align:top;">:</td><td><div>http</div></td></tr><tr><td style="font-weight:bold;vertical-align:top;">wsgi_version</td><td style="vertical-align:top;">:</td><td><div><table><tr><td><div>1</div></td></tr><tr><td><div>0</div></td></tr></table></div></td></tr></table></div></td></tr><tr><td style="font-weight:bold;vertical-align:top;">extension</td><td style="vertical-align:top;">:</td><td><div>html</div></td></tr><tr><td style="font-weight:bold;vertical-align:top;">folder</td><td style="vertical-align:top;">:</td><td><div>/Users/zadok/Desktop/Codetrain/web2py.app/Contents/Resources/applications/loanTracker/</div></td></tr><tr><td style="font-weight:bold;vertical-align:top;">function</td><td style="vertical-align:top;">:</td><td><div>index</div></td></tr><tr><td style="font-weight:bold;vertical-align:top;">global_settings</td><td style="vertical-align:top;">:</td><td><div><table><tr><td style="font-weight:bold;vertical-align:top;">app_folders</td><td style="vertical-align:top;">:</td><td><div>set([&#x27;/Users/zadok/Desktop/Codetrain/web2py.app/Contents/Resources/applications/welcome/&#x27;, &#x27;/Users/zadok/Desktop/Codetrain/web2py.app/Contents/Resources/applications/admin/&#x27;, &#x27;/Users/zadok/Desktop/Codetrain/web2py.app/Contents/Resources/applications/loanTracker/&#x27;])</div></td></tr><tr><td style="font-weight:bold;vertical-align:top;">applications_parent</td><td style="vertical-align:top;">:</td><td><div>/Users/zadok/Desktop/Codetrain/web2py.app/Contents/Resources</div></td></tr><tr><td style="font-weight:bold;vertical-align:top;">cmd_args</td><td style="vertical-align:top;">:</td><td><div><table></table></div></td></tr><tr><td style="font-weight:bold;vertical-align:top;">cmd_options</td><td style="vertical-align:top;">:</td><td><div>&lt;Values at 0x104ecc320: {&#x27;verbose&#x27;: False, &#x27;ip&#x27;: &#x27;127.0.0.1&#x27;, &#x27;debuglevel&#x27;: 30, &#x27;with_scheduler&#x27;: False, &#x27;shutdown_timeout&#x27;: 5, &#x27;taskbar&#x27;: False, &#x27;with_coverage&#x27;: False, &#x27;pid_filename&#x27;: &#x27;httpserver.pid&#x27;, &#x27;maxthreads&#x27;: None, &#x27;softcron&#x27;: False, &#x27;server_name&#x27;: &#x27;Zadoks-MacBook-Pro.local&#x27;, &#x27;bpython&#x27;: False, &#x27;nogui&#x27;: False, &#x27;port&#x27;: 8000, &#x27;print_errors&#x27;: False, &#x27;extcron&#x27;: False, &#x27;runcron&#x27;: False, &#x27;run_system_tests&#x27;: False, &#x27;test&#x27;: None, &#x27;folder&#x27;: &#x27;/Users/zadok/Desktop/Codetrain/web2py.app/Contents/Resources&#x27;, &#x27;config&#x27;: &#x27;&#x27;, &#x27;minthreads&#x27;: None, &#x27;shell&#x27;: None, &#x27;run&#x27;: &#x27;&#x27;, &#x27;log_filename&#x27;: &#x27;httpserver.log&#x27;, &#x27;profiler_dir&#x27;: None, &#x27;args&#x27;: [&#x27;&#x27;], &#x27;socket_timeout&#x27;: 5, &#x27;ssl_ca_certificate&#x27;: None, &#x27;scheduler&#x27;: None, &#x27;interfaces&#x27;: None, &#x27;ssl_private_key&#x27;: &#x27;&#x27;, &#x27;gae&#x27;: None, &#x27;password&#x27;: &#x27;******&#x27;, &#x27;request_queue_size&#x27;: 5, &#x27;ssl_certificate&#x27;: &#x27;&#x27;, &#x27;cronjob&#x27;: False, &#x27;numthreads&#x27;: None, &#x27;quiet&#x27;: False, &#x27;import_models&#x27;: False, &#x27;timeout&#x27;: 10, &#x27;plain&#x27;: False, &#x27;nobanner&#x27;: False}&gt;</div></td></tr><tr><td style="font-weight:bold;vertical-align:top;">db_sessions</td><td style="vertical-align:top;">:</td><td><div>set([])</div></td></tr><tr><td style="font-weight:bold;vertical-align:top;">debugging</td><td style="vertical-align:top;">:</td><td><div>False</div></td></tr><tr><td style="font-weight:bold;vertical-align:top;">gluon_parent</td><td style="vertical-align:top;">:</td><td><div>/Users/zadok/Desktop/Codetrain/web2py.app/Contents/Resources</div></td></tr><tr><td style="font-weight:bold;vertical-align:top;">is_jython</td><td style="vertical-align:top;">:</td><td><div>False</div></td></tr><tr><td style="font-weight:bold;vertical-align:top;">is_py2</td><td style="vertical-align:top;">:</td><td><div>True</div></td></tr><tr><td style="font-weight:bold;vertical-align:top;">is_pypy</td><td style="vertical-align:top;">:</td><td><div>False</div></td></tr><tr><td style="font-weight:bold;vertical-align:top;">is_source</td><td style="vertical-align:top;">:</td><td><div>True</div></td></tr><tr><td style="font-weight:bold;vertical-align:top;">local_hosts</td><td style="vertical-align:top;">:</td><td><div><table><tr><td><div>::1</div></td></tr><tr><td><div>Zadoks-MacBook-Pro.local</div></td></tr><tr><td><div>::ffff:127.0.0.1</div></td></tr><tr><td><div>127.0.0.1</div></td></tr></table></div></td></tr><tr><td style="font-weight:bold;vertical-align:top;">web2py_version</td><td style="vertical-align:top;">:</td><td><div>2.17.2-stable+timestamp.2018.10.06.18.54.02</div></td></tr></table></div></td></tr><tr><td style="font-weight:bold;vertical-align:top;">is_https</td><td style="vertical-align:top;">:</td><td><div>False</div></td></tr><tr><td style="font-weight:bold;vertical-align:top;">is_local</td><td style="vertical-align:top;">:</td><td><div>True</div></td></tr><tr><td style="font-weight:bold;vertical-align:top;">is_restful</td><td style="vertical-align:top;">:</td><td><div>False</div></td></tr><tr><td style="font-weight:bold;vertical-align:top;">is_scheduler</td><td style="vertical-align:top;">:</td><td><div>False</div></td></tr><tr><td style="font-weight:bold;vertical-align:top;">is_shell</td><td style="vertical-align:top;">:</td><td><div>False</div></td></tr><tr><td style="font-weight:bold;vertical-align:top;">method</td><td style="vertical-align:top;">:</td><td><div>GET</div></td></tr><tr><td style="font-weight:bold;vertical-align:top;">now</td><td style="vertical-align:top;">:</td><td><div>datetime.datetime(2019, 2, 12, 12, 5, 3, 803314)</div></td></tr><tr><td style="font-weight:bold;vertical-align:top;">raw_args</td><td style="vertical-align:top;">:</td><td><div></div></td></tr><tr><td style="font-weight:bold;vertical-align:top;">raw_extension</td><td style="vertical-align:top;">:</td><td><div>None</div></td></tr><tr><td style="font-weight:bold;vertical-align:top;">url</td><td style="vertical-align:top;">:</td><td><div>/loanTracker/default/index</div></td></tr><tr><td style="font-weight:bold;vertical-align:top;">utcnow</td><td style="vertical-align:top;">:</td><td><div>datetime.datetime(2019, 2, 12, 12, 5, 3, 803337)</div></td></tr><tr><td style="font-weight:bold;vertical-align:top;">wsgi</td><td style="vertical-align:top;">:</td><td><div>&lt;gluon.main.LazyWSGI object at 0x10c6a1190&gt;</div></td></tr></table></div>'
tRp60
sS'frames'
p61
(lp62
(dp63
S'file'
p64
S'/Users/zadok/Desktop/Codetrain/web2py.app/Contents/Resources/gluon/restricted.py'
p65
sS'dump'
p66
(dp67
S'environment'
p68
S"{'A': <class 'gluon.html.A'>, 'ANY_OF': <class 'gluon.validators.ANY_OF'>, 'ASSIGNJS': <function ASSIGNJS>, 'AppConfig': <function AppConfig>, 'Auth': <class 'gluon.tools.Auth'>, 'B': <class 'gluon.html.B'>, 'BEAUTIFY': <class 'gluon.html.BEAUTIFY'>, 'BODY': <class 'gluon.html.BODY'>, 'BR': <class 'gluon.html.BR'>, 'BUTTON': <class 'gluon.html.BUTTON'>, ...}"
p69
sS'ccode'
p70
S'<code object <module> at 0x10c5dcb30, file "/Use...ions/loanTracker/controllers/default.py", line 2>'
p71
ssS'lnum'
p72
I219
sS'lines'
p73
(dp74
I214
S'    if environment is None:'
p75
sI215
S'        environment = {}'
p76
sI216
S"    environment['__file__'] = layer"
p77
sI217
S"    environment['__name__'] = '__restricted__'"
p78
sI218
S'    try:'
p79
sI219
S'        exec(ccode, environment)'
p80
sI220
S'    except HTTP:'
p81
sI221
S'        raise'
p82
sI222
S'    except RestrictedError:'
p83
sI223
S'        # do not encapsulate (obfuscate) the original RestrictedError'
p84
ssS'call'
p85
S'(ccode=<code object <module> at 0x10c5dcb30, file "/Use...ions/loanTracker/controllers/default.py", line 2>, environment={\'A\': <class \'gluon.html.A\'>, \'ANY_OF\': <class \'gluon.validators.ANY_OF\'>, \'ASSIGNJS\': <function ASSIGNJS>, \'AppConfig\': <function AppConfig>, \'Auth\': <class \'gluon.tools.Auth\'>, \'B\': <class \'gluon.html.B\'>, \'BEAUTIFY\': <class \'gluon.html.BEAUTIFY\'>, \'BODY\': <class \'gluon.html.BODY\'>, \'BR\': <class \'gluon.html.BR\'>, \'BUTTON\': <class \'gluon.html.BUTTON\'>, ...}, layer=\'/Users/zadok/Desktop/Codetrain/web2py.app/Conten...s/applications/loanTracker/controllers/default.py\', scode=<code object <module> at 0x10c5dcb30, file "/Use...ions/loanTracker/controllers/default.py", line 2>)'
p86
sS'func'
p87
S'restricted'
p88
sa(dp89
g64
S'/Users/zadok/Desktop/Codetrain/web2py.app/Contents/Resources/applications/loanTracker/controllers/default.py'
p90
sg66
(dp91
sg72
I47
sg73
(dp92
I36
S'    return dict(loans=loans)'
p93
sI37
S''
sI38
S'def viewLoanee():'
p94
sI39
S'    return dict(form = crud.read(db.loans,request.args(0)) )'
p95
sI40
S''
sI41
S'def editLoan():'
p96
sI42
S'    return dict(form = crud.update(db.loans, request.args(0), next=URL(\'index\'), message = T("Loan Details Editted")))'
p97
sI43
S''
sI44
S'def deleteLoan():'
p98
sI45
S'    crud.delete(db.loans, request.args(0),next=URL(\'index\'),message = T("Loan Deleted"))'
p99
ssg85
S'()'
p100
sg87
S'<module>'
p101
sa(dp102
g64
S'/Users/zadok/Desktop/Codetrain/web2py.app/Contents/Resources/gluon/globals.py'
p103
sg66
(dp104
S'self'
p105
S'undefined'
p106
sS'f'
S'<function index>'
p107
ssg72
I421
sg73
(dp108
I416
S"        self.flash = ''            # used by the default view layout"
p109
sI417
S'        self.meta = Storage()      # used by web2py_ajax.html'
p110
sI418
S'        self.menu = []             # used by the default view layout'
p111
sI419
S'        self.files = []            # used by web2py_ajax.html'
p112
sI420
S'        self._vars = None'
p113
sI421
S'        self._caller = lambda f: f()'
p114
sI422
S'        self._view_environment = None'
p115
sI423
S'        self._custom_commit = None'
p116
sI424
S'        self._custom_rollback = None'
p117
sI425
S"        self.generic_patterns = ['*']"
p118
ssg85
S'(f=<function index>)'
p119
sg87
S'<lambda>'
p120
sa(dp121
g64
S'/Users/zadok/Desktop/Codetrain/web2py.app/Contents/Resources/gluon/tools.py'
p122
sg66
(dp123
S'action'
p124
S'<function index>'
p125
sS'a'
S'()'
p126
sS'b'
g19
ssg72
I3867
sg73
(dp127
I3862
S'                    flag = condition'
p128
sI3863
S'                if not flag:'
p129
sI3864
S'                    current.session.flash = self.messages.access_denied'
p130
sI3865
S'                    return call_or_redirect('
p131
sI3866
S'                        self.settings.on_failed_authorization)'
p132
sI3867
S'                return action(*a, **b)'
p133
sI3868
S'            f.__doc__ = action.__doc__'
p134
sI3869
S'            f.__name__ = action.__name__'
p135
sI3870
S'            f.__dict__.update(action.__dict__)'
p136
sI3871
S'            return f'
p137
ssg85
S'(*a=(), **b={})'
p138
sg87
S'f'
sa(dp139
g64
S'/Users/zadok/Desktop/Codetrain/web2py.app/Contents/Resources/applications/loanTracker/controllers/default.py'
p140
sg66
(dp141
S'global db'
p142
S'<DAL uri="sqlite://storage.sqlite">'
p143
sS'loans'
p144
g106
sS').select'
p145
g106
sS'db.loans.ALL'
p146
S'<pydal.helpers.classes.SQLALL object>'
p147
sS'db.loans'
p148
S'<Table loans (id, loaneeNametext, loaneeContact, amountLoaned, loaneeAddress, dueDate)>'
p149
ssg72
I35
sg73
(dp150
I32
S''
sI33
S'@auth.requires_login()'
p151
sI34
S'def index():'
p152
sI35
S'    loans = db().select(db.loans.ALL)'
p153
sI36
S'    return dict(loans=loans)'
p154
sI37
S''
sI38
S'def viewLoanee():'
p155
sI39
S'    return dict(form = crud.read(db.loans,request.args(0)) )'
p156
sI30
S'def user():'
p157
sI31
S'    return dict(form=auth())'
p158
ssg85
S'()'
p159
sg87
S'index'
p160
sa(dp161
g64
S'/Users/zadok/Desktop/Codetrain/web2py.app/Contents/Resources/gluon/packages/dal/pydal/objects.py'
p162
sg66
(dp163
S'self.query'
p164
S'None'
p165
sS'adapter.select'
p166
S'<bound method SQLite.select of <pydal.adapters.sqlite.SQLite object>>'
p167
sS'fields'
p168
S'[<pydal.objects.Field object>, <pydal.objects.Field object>, <pydal.objects.Field object>, <pydal.objects.Field object>, <pydal.objects.Field object>, <pydal.objects.Field object>]'
p169
sS'adapter'
p170
S'<pydal.adapters.sqlite.SQLite object>'
p171
sS'attributes'
p172
g19
sS'self'
p173
S'<Set None>'
p174
ssg72
I2275
sg73
(dp175
I2272
S"                                    attributes.get('orderby', None),"
p176
sI2273
S"                                    attributes.get('groupby', None))"
p177
sI2274
S'        fields = adapter.expand_all(fields, tablenames)'
p178
sI2275
S'        return adapter.select(self.query, fields, attributes)'
p179
sI2276
S''
sI2277
S'    def iterselect(self, *fields, **attributes):'
p180
sI2278
S'        adapter = self.db._adapter'
p181
sI2279
S'        tablenames = adapter.tables(self.query,'
p182
sI2270
S"                                    attributes.get('join', None),"
p183
sI2271
S"                                    attributes.get('left', None),"
p184
ssg85
S'(self=<Set None>, *fields=[<pydal.objects.Field object>, <pydal.objects.Field object>, <pydal.objects.Field object>, <pydal.objects.Field object>, <pydal.objects.Field object>, <pydal.objects.Field object>], **attributes={})'
p185
sg87
S'select'
p186
sa(dp187
g64
S'/Users/zadok/Desktop/Codetrain/web2py.app/Contents/Resources/gluon/packages/dal/pydal/adapters/sqlite.py'
p188
sg66
(dp189
S'fields'
p190
S'[<pydal.objects.Field object>, <pydal.objects.Field object>, <pydal.objects.Field object>, <pydal.objects.Field object>, <pydal.objects.Field object>, <pydal.objects.Field object>]'
p191
sS'self'
p192
S'<pydal.adapters.sqlite.SQLite object>'
p193
sS').select'
p194
S'<bound method SQLite.select of <pydal.adapters.sqlite.SQLite object>>'
p195
sS'attributes'
p196
g19
sS'query'
p197
S'None'
p198
sS'builtinsuper'
p199
S"<type 'super'>"
p200
sS'global SQLite'
p201
S"<class 'pydal.adapters.sqlite.SQLite'>"
p202
ssg72
I82
sg73
(dp203
I77
S"            self.execute('PRAGMA foreign_keys=ON;')"
p204
sI78
S''
sI79
S'    def select(self, query, fields, attributes):'
p205
sI80
S"        if attributes.get('for_update', False) and 'cache' not in attributes:"
p206
sI81
S"            self.execute('BEGIN IMMEDIATE TRANSACTION;')"
p207
sI82
S'        return super(SQLite, self).select(query, fields, attributes)'
p208
sI83
S''
sI84
S'    def delete(self, table, query):'
p209
sI85
S'        db = self.db'
p210
sI86
S'        deleted = [x[table._id.name] for x in db(query).select(table._id)]'
p211
ssg85
S'(self=<pydal.adapters.sqlite.SQLite object>, query=None, fields=[<pydal.objects.Field object>, <pydal.objects.Field object>, <pydal.objects.Field object>, <pydal.objects.Field object>, <pydal.objects.Field object>, <pydal.objects.Field object>], attributes={})'
p212
sg87
g186
sa(dp213
g64
S'/Users/zadok/Desktop/Codetrain/web2py.app/Contents/Resources/gluon/packages/dal/pydal/adapters/base.py'
p214
sg66
(dp215
S'self._select_aux'
p216
S'<bound method SQLite._select_aux of <pydal.adapters.sqlite.SQLite object>>'
p217
sS'fields'
p218
S'[<pydal.objects.Field object>, <pydal.objects.Field object>, <pydal.objects.Field object>, <pydal.objects.Field object>, <pydal.objects.Field object>, <pydal.objects.Field object>]'
p219
sS'self'
p220
S'<pydal.adapters.sqlite.SQLite object>'
p221
sS'sql'
p222
S'\'SELECT "loans"."id", "loans"."loaneeNametext", "...."loaneeAddress", "loans"."dueDate" FROM "loans";\''
p223
sS'attributes'
p224
g19
sS'colnames'
p225
S"['loans.id', 'loans.loaneeNametext', 'loans.loaneeContact', 'loans.amountLoaned', 'loans.loaneeAddress', 'loans.dueDate']"
p226
ssg72
I763
sg73
(dp227
I758
S'        colnames, sql = self._select_wcols(query, fields, **attributes)'
p228
sI759
S"        cache = attributes.get('cache', None)"
p229
sI760
S"        if cache and attributes.get('cacheable', False):"
p230
sI761
S'            return self._cached_select('
p231
sI762
S'                cache, sql, fields, attributes, colnames)'
p232
sI763
S'        return self._select_aux(sql, fields, attributes, colnames)'
p233
sI764
S''
sI765
S'    def iterselect(self, query, fields, attributes):'
p234
sI766
S'        colnames, sql = self._select_wcols(query, fields, **attributes)'
p235
sI767
S"        cacheable = attributes.get('cacheable', False)"
p236
ssg85
S'(self=<pydal.adapters.sqlite.SQLite object>, query=None, fields=[<pydal.objects.Field object>, <pydal.objects.Field object>, <pydal.objects.Field object>, <pydal.objects.Field object>, <pydal.objects.Field object>, <pydal.objects.Field object>], attributes={})'
p237
sg87
g186
sa(dp238
g64
S'/Users/zadok/Desktop/Codetrain/web2py.app/Contents/Resources/gluon/packages/dal/pydal/adapters/base.py'
p239
sg66
(dp240
S'fields'
p241
S'[<pydal.objects.Field object>, <pydal.objects.Field object>, <pydal.objects.Field object>, <pydal.objects.Field object>, <pydal.objects.Field object>, <pydal.objects.Field object>]'
p242
sS'colnames'
p243
S"['loans.id', 'loans.loaneeNametext', 'loans.loaneeContact', 'loans.amountLoaned', 'loans.loaneeAddress', 'loans.dueDate']"
p244
sS'rows'
p245
S"[(3, None, u'0500004534', u'400ghc', u'Adenta', u'1-3-2019')]"
p246
sS'processor'
p247
S'<bound method SQLite.parse of <pydal.adapters.sqlite.SQLite object>>'
p248
sS'cacheable'
p249
S'False'
p250
ssg72
I742
sg73
(dp251
I737
S'            rows = list(rows)'
p252
sI738
S"        limitby = attributes.get('limitby', None) or (0,)"
p253
sI739
S'        rows = self.rowslice(rows, limitby[0], None)'
p254
sI740
S"        processor = attributes.get('processor', self.parse)"
p255
sI741
S"        cacheable = attributes.get('cacheable', False)"
p256
sI742
S'        return processor(rows, fields, colnames, cacheable=cacheable)'
p257
sI743
S''
sI744
S'    def _cached_select(self, cache, sql, fields, attributes, colnames):'
p258
sI745
S"        del attributes['cache']"
p259
sI746
S'        (cache_model, time_expire) = cache'
p260
ssg85
S'(self=<pydal.adapters.sqlite.SQLite object>, sql=\'SELECT "loans"."id", "loans"."loaneeNametext", "...."loaneeAddress", "loans"."dueDate" FROM "loans";\', fields=[<pydal.objects.Field object>, <pydal.objects.Field object>, <pydal.objects.Field object>, <pydal.objects.Field object>, <pydal.objects.Field object>, <pydal.objects.Field object>], attributes={}, colnames=[\'loans.id\', \'loans.loaneeNametext\', \'loans.loaneeContact\', \'loans.amountLoaned\', \'loans.loaneeAddress\', \'loans.dueDate\'])'
p261
sg87
S'_select_aux'
p262
sa(dp263
g64
S'/Users/zadok/Desktop/Codetrain/web2py.app/Contents/Resources/gluon/packages/dal/pydal/adapters/base.py'
p264
sg66
(dp265
S'rows'
p266
S"[(3, None, u'0500004534', u'400ghc', u'Adenta', u'1-3-2019')]"
p267
sS'row'
p268
S"(3, None, u'0500004534', u'400ghc', u'Adenta', u'1-3-2019')"
p269
ssg72
I306
sg73
(dp270
I301
S'            self._parse_expand_colnames(fields)'
p271
sI302
S'        new_rows = ['
p272
sI303
S'            self._parse('
p273
sI304
S'                row, tmps, fields, colnames, blob_decode, cacheable,'
p274
sI305
S'                fields_virtual, fields_lazy)'
p275
sI306
S'            for row in rows'
p276
sI307
S'        ]'
p277
sI308
S'        rowsobj = self.db.Rows(self.db, new_rows, colnames, rawrows=rows,'
p278
sI309
S'                fields=fields)'
p279
sI310
S'        # Old style virtual fields'
p280
ssg85
S"(self=<pydal.adapters.sqlite.SQLite object>, rows=[(3, None, u'0500004534', u'400ghc', u'Adenta', u'1-3-2019')], fields=[<pydal.objects.Field object>, <pydal.objects.Field object>, <pydal.objects.Field object>, <pydal.objects.Field object>, <pydal.objects.Field object>, <pydal.objects.Field object>], colnames=['loans.id', 'loans.loaneeNametext', 'loans.loaneeContact', 'loans.amountLoaned', 'loans.loaneeAddress', 'loans.dueDate'], blob_decode=True, cacheable=False)"
p281
sg87
S'parse'
p282
sa(dp283
g64
S'/Users/zadok/Desktop/Codetrain/web2py.app/Contents/Resources/gluon/packages/dal/pydal/adapters/base.py'
p284
sg66
(dp285
S'blob_decode'
p286
S'True'
p287
sS'ft'
p288
S"'double'"
p289
sS'fit'
p290
S"'double'"
p291
sS'self.parse_value'
p292
S'<bound method SQLite.parse_value of <pydal.adapters.sqlite.SQLite object>>'
p293
sS'self'
p294
S'<pydal.adapters.sqlite.SQLite object>'
p295
sS'value'
p296
S"u'400ghc'"
p297
ssg72
I232
sg73
(dp298
I227
S'            #: do we have a real column?'
p299
sI228
S'            if tmp:'
p300
sI229
S'                (tablename, fieldname, table, field, ft, fit) = tmp'
p301
sI230
S'                colset = new_row[tablename]'
p302
sI231
S'                #: parse value'
p303
sI232
S'                value = self.parse_value(value, fit, ft, blob_decode)'
p304
sI233
S'                if field.filter_out:'
p305
sI234
S'                    value = field.filter_out(value)'
p306
sI235
S'                colset[fieldname] = value'
p307
sI236
S'                #! backward compatibility'
p308
ssg85
S"(self=<pydal.adapters.sqlite.SQLite object>, row=(3, None, u'0500004534', u'400ghc', u'Adenta', u'1-3-2019'), tmps=[('loans', 'id', <Table loans (id, loaneeNametext, loaneeContact, amountLoaned, loaneeAddress, dueDate)>, <pydal.objects.Field object>, 'id', 'id'), ('loans', 'loaneeNametext', <Table loans (id, loaneeNametext, loaneeContact, amountLoaned, loaneeAddress, dueDate)>, <pydal.objects.Field object>, 'string', 'string'), ('loans', 'loaneeContact', <Table loans (id, loaneeNametext, loaneeContact, amountLoaned, loaneeAddress, dueDate)>, <pydal.objects.Field object>, 'integer', 'integer'), ('loans', 'amountLoaned', <Table loans (id, loaneeNametext, loaneeContact, amountLoaned, loaneeAddress, dueDate)>, <pydal.objects.Field object>, 'double', 'double'), ('loans', 'loaneeAddress', <Table loans (id, loaneeNametext, loaneeContact, amountLoaned, loaneeAddress, dueDate)>, <pydal.objects.Field object>, 'string', 'string'), ('loans', 'dueDate', <Table loans (id, loaneeNametext, loaneeContact, amountLoaned, loaneeAddress, dueDate)>, <pydal.objects.Field object>, 'date', 'date')], fields=[<pydal.objects.Field object>, <pydal.objects.Field object>, <pydal.objects.Field object>, <pydal.objects.Field object>, <pydal.objects.Field object>, <pydal.objects.Field object>], colnames=['loans.id', 'loans.loaneeNametext', 'loans.loaneeContact', 'loans.amountLoaned', 'loans.loaneeAddress', 'loans.dueDate'], blob_decode=True, cacheable=False, fields_virtual={'loans': (<Table loans (id, loaneeNametext, loaneeContact, amountLoaned, loaneeAddress, dueDate)>, [])}, fields_lazy={'loans': (<Table loans (id, loaneeNametext, loaneeContact, amountLoaned, loaneeAddress, dueDate)>, [])})"
p309
sg87
S'_parse'
p310
sa(dp311
g64
S'/Users/zadok/Desktop/Codetrain/web2py.app/Contents/Resources/gluon/packages/dal/pydal/adapters/base.py'
p312
sg66
(dp313
S'field_type'
p314
S"'double'"
p315
sS'self'
p316
S'<pydal.adapters.sqlite.SQLite object>'
p317
sS'value'
p318
S"'400ghc'"
p319
sS'self.parser'
p320
S'<pydal.parsers.sqlite.SQLiteParser object>'
p321
sS'field_itype'
p322
S"'double'"
p323
sS'self.parser.parse'
p324
S'<bound method SQLiteParser.parse of <pydal.parsers.sqlite.SQLiteParser object>>'
p325
ssg72
I199
sg73
(dp326
I194
S'        if not isinstance(field_type, str) or value is None:'
p327
sI195
S'            return value'
p328
sI196
S"        elif field_type == 'blob' and not blob_decode:"
p329
sI197
S'            return value'
p330
sI198
S'        else:'
p331
sI199
S'            return self.parser.parse(value, field_itype, field_type)'
p332
sI200
S''
sI201
S'    def _add_operators_to_parsed_row(self, rid, table, row):'
p333
sI202
S'        for key, record_operator in iteritems(self.db.record_operators):'
p334
sI203
S'            setattr(row, key, record_operator(row, table, rid))'
p335
ssg85
S"(self=<pydal.adapters.sqlite.SQLite object>, value='400ghc', field_itype='double', field_type='double', blob_decode=True)"
p336
sg87
S'parse_value'
p337
sa(dp338
g64
S'/Users/zadok/Desktop/Codetrain/web2py.app/Contents/Resources/gluon/packages/dal/pydal/parsers/__init__.py'
p339
sg66
(dp340
S'field_itype'
p341
S"'double'"
p342
sS'field_type'
p343
S"'double'"
p344
sS'self'
p345
S'<pydal.parsers.sqlite.SQLiteParser object>'
p346
sS'self.registered'
p347
S'defaultdict(<function <lambda> at 0x10c7f95f0>, ...sers.ParserMethodWrapper object at 0x10c80f6d0>})'
p348
sS'value'
p349
S"'400ghc'"
p350
ssg72
I101
sg73
(dp351
I96
S''
sI97
S'    def _default(self, value, field_type):'
p352
sI98
S'        return value'
p353
sI99
S''
sI100
S'    def parse(self, value, field_itype, field_type):'
p354
sI101
S'        return self.registered[field_itype](value, field_type)'
p355
sI102
S''
sI103
S''
sI104
S'from .base import BasicParser'
p356
sI105
S'from .sqlite import SQLiteParser'
p357
ssg85
S"(self=<pydal.parsers.sqlite.SQLiteParser object>, value='400ghc', field_itype='double', field_type='double')"
p358
sg87
g282
sa(dp359
g64
S'/Users/zadok/Desktop/Codetrain/web2py.app/Contents/Resources/gluon/packages/dal/pydal/parsers/__init__.py'
p360
sg66
(dp361
S'field_type'
p362
S"'double'"
p363
sS'self'
p364
S'<pydal.parsers.ParserMethodWrapper object>'
p365
sS'self.call'
p366
S'<bound method ParserMethodWrapper._call of <pydal.parsers.ParserMethodWrapper object>>'
p367
sS'value'
p368
S"'400ghc'"
p369
ssg72
I76
sg73
(dp370
I71
S''
sI72
S'    def _call(self, value, field_type):'
p371
sI73
S'        return self.f(self.parser, value)'
p372
sI74
S''
sI75
S'    def __call__(self, value, field_type):'
p373
sI76
S'        return self.call(value, field_type)'
p374
sI77
S''
sI78
S''
sI79
S'class Parser(with_metaclass(MetaParser)):'
p375
sI80
S'    def __init__(self, adapter):'
p376
ssg85
S"(self=<pydal.parsers.ParserMethodWrapper object>, value='400ghc', field_type='double')"
p377
sg87
S'__call__'
p378
sa(dp379
g64
S'/Users/zadok/Desktop/Codetrain/web2py.app/Contents/Resources/gluon/packages/dal/pydal/parsers/__init__.py'
p380
sg66
(dp381
S'self'
p382
S'<pydal.parsers.ParserMethodWrapper object>'
p383
sS'self.f'
p384
S'<function _double>'
p385
sS'self.parser'
p386
S'<pydal.parsers.sqlite.SQLiteParser object>'
p387
sS'value'
p388
S"'400ghc'"
p389
ssg72
I73
sg73
(dp390
I68
S'    def _call_with_extras(self, value, field_type):'
p391
sI69
S'        extras = self.extra(self.parser, field_type)'
p392
sI70
S'        return self.f(self.parser, value, **extras)'
p393
sI71
S''
sI72
S'    def _call(self, value, field_type):'
p394
sI73
S'        return self.f(self.parser, value)'
p395
sI74
S''
sI75
S'    def __call__(self, value, field_type):'
p396
sI76
S'        return self.call(value, field_type)'
p397
sI77
S''
ssg85
S"(self=<pydal.parsers.ParserMethodWrapper object>, value='400ghc', field_type='double')"
p398
sg87
S'_call'
p399
sa(dp400
g64
S'/Users/zadok/Desktop/Codetrain/web2py.app/Contents/Resources/gluon/packages/dal/pydal/parsers/base.py'
p401
sg66
(dp402
S'self'
p403
S'<pydal.parsers.sqlite.SQLiteParser object>'
p404
sS'self.registered'
p405
S'defaultdict(<function <lambda> at 0x10c7f95f0>, ...sers.ParserMethodWrapper object at 0x10c80f6d0>})'
p406
sS'value'
p407
S"'400ghc'"
p408
ssg72
I29
sg73
(dp409
I32
S'    def _boolean(self, value):'
p410
sI33
S"        return value == self.dialect.true or str(value)[:1].lower() == 't'"
p411
sI24
S'    def _float(self, value):'
p412
sI25
S'        return float(value)'
p413
sI26
S''
sI27
S"    @for_type('double')"
p414
sI28
S'    def _double(self, value):'
p415
sI29
S"        return self.registered['float'](value, 'double')"
p416
sI30
S''
sI31
S"    @for_type('boolean')"
p417
ssg85
S"(self=<pydal.parsers.sqlite.SQLiteParser object>, value='400ghc')"
p418
sg87
S'_double'
p419
sa(dp420
g64
S'/Users/zadok/Desktop/Codetrain/web2py.app/Contents/Resources/gluon/packages/dal/pydal/parsers/__init__.py'
p421
sg66
(dp422
S'field_type'
p423
S"'double'"
p424
sS'self'
p425
S'<pydal.parsers.ParserMethodWrapper object>'
p426
sS'self.call'
p427
S'<bound method ParserMethodWrapper._call of <pydal.parsers.ParserMethodWrapper object>>'
p428
sS'value'
p429
S"'400ghc'"
p430
ssg72
I76
sg73
(dp431
I71
S''
sI72
S'    def _call(self, value, field_type):'
p432
sI73
S'        return self.f(self.parser, value)'
p433
sI74
S''
sI75
S'    def __call__(self, value, field_type):'
p434
sI76
S'        return self.call(value, field_type)'
p435
sI77
S''
sI78
S''
sI79
S'class Parser(with_metaclass(MetaParser)):'
p436
sI80
S'    def __init__(self, adapter):'
p437
ssg85
S"(self=<pydal.parsers.ParserMethodWrapper object>, value='400ghc', field_type='double')"
p438
sg87
g378
sa(dp439
g64
S'/Users/zadok/Desktop/Codetrain/web2py.app/Contents/Resources/gluon/packages/dal/pydal/parsers/__init__.py'
p440
sg66
(dp441
S'self'
p442
S'<pydal.parsers.ParserMethodWrapper object>'
p443
sS'self.f'
p444
S'<function _float>'
p445
sS'self.parser'
p446
S'<pydal.parsers.sqlite.SQLiteParser object>'
p447
sS'value'
p448
S"'400ghc'"
p449
ssg72
I73
sg73
(dp450
I68
S'    def _call_with_extras(self, value, field_type):'
p451
sI69
S'        extras = self.extra(self.parser, field_type)'
p452
sI70
S'        return self.f(self.parser, value, **extras)'
p453
sI71
S''
sI72
S'    def _call(self, value, field_type):'
p454
sI73
S'        return self.f(self.parser, value)'
p455
sI74
S''
sI75
S'    def __call__(self, value, field_type):'
p456
sI76
S'        return self.call(value, field_type)'
p457
sI77
S''
ssg85
S"(self=<pydal.parsers.ParserMethodWrapper object>, value='400ghc', field_type='double')"
p458
sg87
g399
sa(dp459
g64
S'/Users/zadok/Desktop/Codetrain/web2py.app/Contents/Resources/gluon/packages/dal/pydal/parsers/base.py'
p460
sg66
(dp461
S'builtinfloat'
p462
S"<type 'float'>"
p463
sS'value'
p464
S"'400ghc'"
p465
ssg72
I25
sg73
(dp466
I20
S'    def _integer(self, value):'
p467
sI21
S'        return long(value)'
p468
sI22
S''
sI23
S"    @for_type('float')"
p469
sI24
S'    def _float(self, value):'
p470
sI25
S'        return float(value)'
p471
sI26
S''
sI27
S"    @for_type('double')"
p472
sI28
S'    def _double(self, value):'
p473
sI29
S"        return self.registered['float'](value, 'double')"
p474
ssg85
S"(self=<pydal.parsers.sqlite.SQLiteParser object>, value='400ghc')"
p475
sg87
S'_float'
p476
sasS'pyver'
p477
S'Python 2.7.15: /usr/local/opt/python@2/bin/python2.7 (prefix: /usr/local/Cellar/python@2/2.7.15_2/Frameworks/Python.framework/Versions/2.7)'
p478
sS'session'
p479
g59
(S's\xfc\t\x00\x00<div><table><tr><td style="font-weight:bold;vertical-align:top;">auth</td><td style="vertical-align:top;">:</td><td><div><table><tr><td style="font-weight:bold;vertical-align:top;">expiration</td><td style="vertical-align:top;">:</td><td><div>3600</div></td></tr><tr><td style="font-weight:bold;vertical-align:top;">hmac_key</td><td style="vertical-align:top;">:</td><td><div>92e43ee3-935a-4cc5-a0ad-cc0288bbcc4e</div></td></tr><tr><td style="font-weight:bold;vertical-align:top;">last_visit</td><td style="vertical-align:top;">:</td><td><div>datetime.datetime(2019, 2, 12, 12, 1, 20, 404963)</div></td></tr><tr><td style="font-weight:bold;vertical-align:top;">remember_me</td><td style="vertical-align:top;">:</td><td><div>False</div></td></tr><tr><td style="font-weight:bold;vertical-align:top;">user</td><td style="vertical-align:top;">:</td><td><div><table><tr><td style="font-weight:bold;vertical-align:top;">email</td><td style="vertical-align:top;">:</td><td><div>j@gmail.com</div></td></tr><tr><td style="font-weight:bold;vertical-align:top;">first_name</td><td style="vertical-align:top;">:</td><td><div>John</div></td></tr><tr><td style="font-weight:bold;vertical-align:top;">id</td><td style="vertical-align:top;">:</td><td><div>14L</div></td></tr><tr><td style="font-weight:bold;vertical-align:top;">last_name</td><td style="vertical-align:top;">:</td><td><div>Doe</div></td></tr><tr><td style="font-weight:bold;vertical-align:top;">registration_id</td><td style="vertical-align:top;">:</td><td><div></div></td></tr><tr><td style="font-weight:bold;vertical-align:top;">registration_key</td><td style="vertical-align:top;">:</td><td><div></div></td></tr><tr><td style="font-weight:bold;vertical-align:top;">reset_password_key</td><td style="vertical-align:top;">:</td><td><div></div></td></tr></table></div></td></tr><tr><td style="font-weight:bold;vertical-align:top;">user_groups</td><td style="vertical-align:top;">:</td><td><div><table><tr><td style="font-weight:bold;vertical-align:top;">3</td><td style="vertical-align:top;">:</td><td><div>user_14</div></td></tr></table></div></td></tr></table></div></td></tr><tr><td style="font-weight:bold;vertical-align:top;">flash</td><td style="vertical-align:top;">:</td><td><div>None</div></td></tr><tr><td style="font-weight:bold;vertical-align:top;">last_orderby</td><td style="vertical-align:top;">:</td><td><div>None</div></td></tr><tr><td style="font-weight:bold;vertical-align:top;">last_query</td><td style="vertical-align:top;">:</td><td><div>db.loans.id&gt;0</div></td></tr></table></div>'
tRp480
sS'etype'
p481
S"<type 'exceptions.ValueError'>"
p482
sS'date'
p483
S'Tue Feb 12 12:05:03 2019'
p484
sS'response'
p485
g59
(S's\xaf:\x00\x00<div><table><tr><td style="font-weight:bold;vertical-align:top;">body</td><td style="vertical-align:top;">:</td><td><div>&lt;cStringIO.StringO object at 0x10c9b0d88&gt;</div></td></tr><tr><td style="font-weight:bold;vertical-align:top;">cookies</td><td style="vertical-align:top;">:</td><td><div><table><tr><td style="font-weight:bold;vertical-align:top;">session_id_loantracker</td><td style="vertical-align:top;">:</td><td><div>127.0.0.1-ea431919-31b3-4d9c-b2f0-467d179d990f<table><tr><td style="font-weight:bold;vertical-align:top;">comment</td><td style="vertical-align:top;">:</td><td><div></div></td></tr><tr><td style="font-weight:bold;vertical-align:top;">domain</td><td style="vertical-align:top;">:</td><td><div></div></td></tr><tr><td style="font-weight:bold;vertical-align:top;">expires</td><td style="vertical-align:top;">:</td><td><div></div></td></tr><tr><td style="font-weight:bold;vertical-align:top;">httponly</td><td style="vertical-align:top;">:</td><td><div></div></td></tr><tr><td style="font-weight:bold;vertical-align:top;">max-age</td><td style="vertical-align:top;">:</td><td><div></div></td></tr><tr><td style="font-weight:bold;vertical-align:top;">path</td><td style="vertical-align:top;">:</td><td><div>/</div></td></tr><tr><td style="font-weight:bold;vertical-align:top;">samesite</td><td style="vertical-align:top;">:</td><td><div></div></td></tr><tr><td style="font-weight:bold;vertical-align:top;">secure</td><td style="vertical-align:top;">:</td><td><div></div></td></tr><tr><td style="font-weight:bold;vertical-align:top;">version</td><td style="vertical-align:top;">:</td><td><div></div></td></tr></table></div></td></tr></table></div></td></tr><tr><td style="font-weight:bold;vertical-align:top;">delimiters</td><td style="vertical-align:top;">:</td><td><div><table><tr><td><div>{{</div></td></tr><tr><td><div>}}</div></td></tr></table></div></td></tr><tr><td style="font-weight:bold;vertical-align:top;">files</td><td style="vertical-align:top;">:</td><td><div><table></table></div></td></tr><tr><td style="font-weight:bold;vertical-align:top;">flash</td><td style="vertical-align:top;">:</td><td><div></div></td></tr><tr><td style="font-weight:bold;vertical-align:top;">form_label_separator</td><td style="vertical-align:top;">:</td><td><div>: </div></td></tr><tr><td style="font-weight:bold;vertical-align:top;">formstyle</td><td style="vertical-align:top;">:</td><td><div>table3cols</div></td></tr><tr><td style="font-weight:bold;vertical-align:top;">generic_patterns</td><td style="vertical-align:top;">:</td><td><div><table><tr><td><div>*</div></td></tr></table></div></td></tr><tr><td style="font-weight:bold;vertical-align:top;">headers</td><td style="vertical-align:top;">:</td><td><div><table><tr><td style="font-weight:bold;vertical-align:top;">X-Powered-By</td><td style="vertical-align:top;">:</td><td><div>web2py</div></td></tr></table></div></td></tr><tr><td style="font-weight:bold;vertical-align:top;">menu</td><td style="vertical-align:top;">:</td><td><div><table><tr><td><div><table><tr><td><div>Home</div></td></tr><tr><td><div>False</div></td></tr><tr><td><div>/loanTracker/default/index</div></td></tr><tr><td><div><table></table></div></td></tr></table></div></td></tr><tr><td><div><table><tr><td><div>My Sites</div></td></tr><tr><td><div>False</div></td></tr><tr><td><div>/admin/default/site</div></td></tr></table></div></td></tr><tr><td><div><table><tr><td><div>This App</div></td></tr><tr><td><div>False</div></td></tr><tr><td><div>#</div></td></tr><tr><td><div><table><tr><td><div><table><tr><td><div>Design</div></td></tr><tr><td><div>False</div></td></tr><tr><td><div>/admin/default/design/loanTracker</div></td></tr></table></div></td></tr><tr><td><div><table><tr><td><div>Controller</div></td></tr><tr><td><div>False</div></td></tr><tr><td><div>/admin/default/edit/loanTracker/controllers/default.py</div></td></tr></table></div></td></tr><tr><td><div><table><tr><td><div>View</div></td></tr><tr><td><div>False</div></td></tr><tr><td><div>/admin/default/edit/loanTracker/views/default/index.html</div></td></tr></table></div></td></tr><tr><td><div><table><tr><td><div>DB Model</div></td></tr><tr><td><div>False</div></td></tr><tr><td><div>/admin/default/edit/loanTracker/models/db.py</div></td></tr></table></div></td></tr><tr><td><div><table><tr><td><div>Menu Model</div></td></tr><tr><td><div>False</div></td></tr><tr><td><div>/admin/default/edit/loanTracker/models/menu.py</div></td></tr></table></div></td></tr><tr><td><div><table><tr><td><div>Config.ini</div></td></tr><tr><td><div>False</div></td></tr><tr><td><div>/admin/default/edit/loanTracker/private/appconfig.ini</div></td></tr></table></div></td></tr><tr><td><div><table><tr><td><div>Layout</div></td></tr><tr><td><div>False</div></td></tr><tr><td><div>/admin/default/edit/loanTracker/views/layout.html</div></td></tr></table></div></td></tr><tr><td><div><table><tr><td><div>Stylesheet</div></td></tr><tr><td><div>False</div></td></tr><tr><td><div>/admin/default/edit/loanTracker/static/css/web2py-bootstrap3.css</div></td></tr></table></div></td></tr><tr><td><div><table><tr><td><div>Database</div></td></tr><tr><td><div>False</div></td></tr><tr><td><div>/loanTracker/appadmin/index</div></td></tr></table></div></td></tr><tr><td><div><table><tr><td><div>Errors</div></td></tr><tr><td><div>False</div></td></tr><tr><td><div>/admin/default/errors/loanTracker</div></td></tr></table></div></td></tr><tr><td><div><table><tr><td><div>About</div></td></tr><tr><td><div>False</div></td></tr><tr><td><div>/admin/default/about/loanTracker</div></td></tr></table></div></td></tr></table></div></td></tr></table></div></td></tr><tr><td><div><table><tr><td><div>web2py.com</div></td></tr><tr><td><div>False</div></td></tr><tr><td><div>#</div></td></tr><tr><td><div><table><tr><td><div><table><tr><td><div>Download</div></td></tr><tr><td><div>False</div></td></tr><tr><td><div>http://www.web2py.com/examples/default/download</div></td></tr></table></div></td></tr><tr><td><div><table><tr><td><div>Support</div></td></tr><tr><td><div>False</div></td></tr><tr><td><div>http://www.web2py.com/examples/default/support</div></td></tr></table></div></td></tr><tr><td><div><table><tr><td><div>Demo</div></td></tr><tr><td><div>False</div></td></tr><tr><td><div>http://web2py.com/demo_admin</div></td></tr></table></div></td></tr><tr><td><div><table><tr><td><div>Quick Examples</div></td></tr><tr><td><div>False</div></td></tr><tr><td><div>http://web2py.com/examples/default/examples</div></td></tr></table></div></td></tr><tr><td><div><table><tr><td><div>FAQ</div></td></tr><tr><td><div>False</div></td></tr><tr><td><div>http://web2py.com/AlterEgo</div></td></tr></table></div></td></tr><tr><td><div><table><tr><td><div>Videos</div></td></tr><tr><td><div>False</div></td></tr><tr><td><div>http://www.web2py.com/examples/default/videos/</div></td></tr></table></div></td></tr><tr><td><div><table><tr><td><div>Free Applications</div></td></tr><tr><td><div>False</div></td></tr><tr><td><div>http://web2py.com/appliances</div></td></tr></table></div></td></tr><tr><td><div><table><tr><td><div>Plugins</div></td></tr><tr><td><div>False</div></td></tr><tr><td><div>http://web2py.com/plugins</div></td></tr></table></div></td></tr><tr><td><div><table><tr><td><div>Recipes</div></td></tr><tr><td><div>False</div></td></tr><tr><td><div>http://web2pyslices.com/</div></td></tr></table></div></td></tr></table></div></td></tr></table></div></td></tr><tr><td><div><table><tr><td><div>Documentation</div></td></tr><tr><td><div>False</div></td></tr><tr><td><div>#</div></td></tr><tr><td><div><table><tr><td><div><table><tr><td><div>Online book</div></td></tr><tr><td><div>False</div></td></tr><tr><td><div>http://www.web2py.com/book</div></td></tr></table></div></td></tr><tr><td><div><table><tr><td><div>Preface</div></td></tr><tr><td><div>False</div></td></tr><tr><td><div>http://www.web2py.com/book/default/chapter/00</div></td></tr></table></div></td></tr><tr><td><div><table><tr><td><div>Introduction</div></td></tr><tr><td><div>False</div></td></tr><tr><td><div>http://www.web2py.com/book/default/chapter/01</div></td></tr></table></div></td></tr><tr><td><div><table><tr><td><div>Python</div></td></tr><tr><td><div>False</div></td></tr><tr><td><div>http://www.web2py.com/book/default/chapter/02</div></td></tr></table></div></td></tr><tr><td><div><table><tr><td><div>Overview</div></td></tr><tr><td><div>False</div></td></tr><tr><td><div>http://www.web2py.com/book/default/chapter/03</div></td></tr></table></div></td></tr><tr><td><div><table><tr><td><div>The Core</div></td></tr><tr><td><div>False</div></td></tr><tr><td><div>http://www.web2py.com/book/default/chapter/04</div></td></tr></table></div></td></tr><tr><td><div><table><tr><td><div>The Views</div></td></tr><tr><td><div>False</div></td></tr><tr><td><div>http://www.web2py.com/book/default/chapter/05</div></td></tr></table></div></td></tr><tr><td><div><table><tr><td><div>Database</div></td></tr><tr><td><div>False</div></td></tr><tr><td><div>http://www.web2py.com/book/default/chapter/06</div></td></tr></table></div></td></tr><tr><td><div><table><tr><td><div>Forms and Validators</div></td></tr><tr><td><div>False</div></td></tr><tr><td><div>http://www.web2py.com/book/default/chapter/07</div></td></tr></table></div></td></tr><tr><td><div><table><tr><td><div>Email and SMS</div></td></tr><tr><td><div>False</div></td></tr><tr><td><div>http://www.web2py.com/book/default/chapter/08</div></td></tr></table></div></td></tr><tr><td><div><table><tr><td><div>Access Control</div></td></tr><tr><td><div>False</div></td></tr><tr><td><div>http://www.web2py.com/book/default/chapter/09</div></td></tr></table></div></td></tr><tr><td><div><table><tr><td><div>Services</div></td></tr><tr><td><div>False</div></td></tr><tr><td><div>http://www.web2py.com/book/default/chapter/10</div></td></tr></table></div></td></tr><tr><td><div><table><tr><td><div>Ajax Recipes</div></td></tr><tr><td><div>False</div></td></tr><tr><td><div>http://www.web2py.com/book/default/chapter/11</div></td></tr></table></div></td></tr><tr><td><div><table><tr><td><div>Components and Plugins</div></td></tr><tr><td><div>False</div></td></tr><tr><td><div>http://www.web2py.com/book/default/chapter/12</div></td></tr></table></div></td></tr><tr><td><div><table><tr><td><div>Deployment Recipes</div></td></tr><tr><td><div>False</div></td></tr><tr><td><div>http://www.web2py.com/book/default/chapter/13</div></td></tr></table></div></td></tr><tr><td><div><table><tr><td><div>Other Recipes</div></td></tr><tr><td><div>False</div></td></tr><tr><td><div>http://www.web2py.com/book/default/chapter/14</div></td></tr></table></div></td></tr><tr><td><div><table><tr><td><div>Helping web2py</div></td></tr><tr><td><div>False</div></td></tr><tr><td><div>http://www.web2py.com/book/default/chapter/15</div></td></tr></table></div></td></tr><tr><td><div><table><tr><td><div>Buy web2py\'s book</div></td></tr><tr><td><div>False</div></td></tr><tr><td><div>http://stores.lulu.com/web2py</div></td></tr></table></div></td></tr></table></div></td></tr></table></div></td></tr><tr><td><div><table><tr><td><div>Community</div></td></tr><tr><td><div>False</div></td></tr><tr><td><div>None</div></td></tr><tr><td><div><table><tr><td><div><table><tr><td><div>Groups</div></td></tr><tr><td><div>False</div></td></tr><tr><td><div>http://www.web2py.com/examples/default/usergroups</div></td></tr></table></div></td></tr><tr><td><div><table><tr><td><div>Twitter</div></td></tr><tr><td><div>False</div></td></tr><tr><td><div>http://twitter.com/web2py</div></td></tr></table></div></td></tr><tr><td><div><table><tr><td><div>Live Chat</div></td></tr><tr><td><div>False</div></td></tr><tr><td><div>http://webchat.freenode.net/?channels=web2py</div></td></tr></table></div></td></tr></table></div></td></tr></table></div></td></tr></table></div></td></tr><tr><td style="font-weight:bold;vertical-align:top;">meta</td><td style="vertical-align:top;">:</td><td><div><table></table></div></td></tr><tr><td style="font-weight:bold;vertical-align:top;">models_to_run</td><td style="vertical-align:top;">:</td><td><div><table><tr><td><div>^\\w+\\.py$</div></td></tr><tr><td><div>^default/\\w+\\.py$</div></td></tr><tr><td><div>^default/index/\\w+\\.py$</div></td></tr></table></div></td></tr><tr><td style="font-weight:bold;vertical-align:top;">postprocessing</td><td style="vertical-align:top;">:</td><td><div><table></table></div></td></tr><tr><td style="font-weight:bold;vertical-align:top;">session_client</td><td style="vertical-align:top;">:</td><td><div>127.0.0.1</div></td></tr><tr><td style="font-weight:bold;vertical-align:top;">session_cookie_compression_level</td><td style="vertical-align:top;">:</td><td><div>None</div></td></tr><tr><td style="font-weight:bold;vertical-align:top;">session_cookie_expires</td><td style="vertical-align:top;">:</td><td><div>None</div></td></tr><tr><td style="font-weight:bold;vertical-align:top;">session_data_name</td><td style="vertical-align:top;">:</td><td><div>session_data_loantracker</div></td></tr><tr><td style="font-weight:bold;vertical-align:top;">session_file</td><td style="vertical-align:top;">:</td><td><div>&lt;open file &#x27;/Users/zadok/Desktop/Codetrain/web2py.app/Contents/Resources/applications/loanTracker/sessions/0bf/059/127.0.0.1-ea431919-31b3-4d9c-b2f0-467d179d990f&#x27;, mode &#x27;rb+&#x27; at 0x10c4ac150&gt;</div></td></tr><tr><td style="font-weight:bold;vertical-align:top;">session_filename</td><td style="vertical-align:top;">:</td><td><div>/Users/zadok/Desktop/Codetrain/web2py.app/Contents/Resources/applications/loanTracker/sessions/127.0.0.1-ea431919-31b3-4d9c-b2f0-467d179d990f</div></td></tr><tr><td style="font-weight:bold;vertical-align:top;">session_hash</td><td style="vertical-align:top;">:</td><td><div>37cde418ac9c91a062fe4a3f5bbfe21d</div></td></tr><tr><td style="font-weight:bold;vertical-align:top;">session_id</td><td style="vertical-align:top;">:</td><td><div>127.0.0.1-ea431919-31b3-4d9c-b2f0-467d179d990f</div></td></tr><tr><td style="font-weight:bold;vertical-align:top;">session_id_name</td><td style="vertical-align:top;">:</td><td><div>session_id_loantracker</div></td></tr><tr><td style="font-weight:bold;vertical-align:top;">session_locked</td><td style="vertical-align:top;">:</td><td><div>True</div></td></tr><tr><td style="font-weight:bold;vertical-align:top;">session_masterapp</td><td style="vertical-align:top;">:</td><td><div>loanTracker</div></td></tr><tr><td style="font-weight:bold;vertical-align:top;">session_new</td><td style="vertical-align:top;">:</td><td><div>False</div></td></tr><tr><td style="font-weight:bold;vertical-align:top;">session_storage_type</td><td style="vertical-align:top;">:</td><td><div>file</div></td></tr><tr><td style="font-weight:bold;vertical-align:top;">status</td><td style="vertical-align:top;">:</td><td><div>200</div></td></tr><tr><td style="font-weight:bold;vertical-align:top;">view</td><td style="vertical-align:top;">:</td><td><div>default/index.html</div></td></tr></table></div>'
tRp486
sS'locals'
p487
(dp488
S'self'
p489
S'<pydal.parsers.sqlite.SQLiteParser object>'
p490
sS'value'
p491
S"'400ghc'"
p492
sssS'traceback'
p493
S'Traceback (most recent call last):\n  File "/Users/zadok/Desktop/Codetrain/web2py.app/Contents/Resources/gluon/restricted.py", line 219, in restricted\n    exec(ccode, environment)\n  File "/Users/zadok/Desktop/Codetrain/web2py.app/Contents/Resources/applications/loanTracker/controllers/default.py", line 47, in <module>\n  File "/Users/zadok/Desktop/Codetrain/web2py.app/Contents/Resources/gluon/globals.py", line 421, in <lambda>\n    self._caller = lambda f: f()\n  File "/Users/zadok/Desktop/Codetrain/web2py.app/Contents/Resources/gluon/tools.py", line 3867, in f\n    return action(*a, **b)\n  File "/Users/zadok/Desktop/Codetrain/web2py.app/Contents/Resources/applications/loanTracker/controllers/default.py", line 35, in index\n    loans = db().select(db.loans.ALL)\n  File "/Users/zadok/Desktop/Codetrain/web2py.app/Contents/Resources/gluon/packages/dal/pydal/objects.py", line 2275, in select\n    return adapter.select(self.query, fields, attributes)\n  File "/Users/zadok/Desktop/Codetrain/web2py.app/Contents/Resources/gluon/packages/dal/pydal/adapters/sqlite.py", line 82, in select\n    return super(SQLite, self).select(query, fields, attributes)\n  File "/Users/zadok/Desktop/Codetrain/web2py.app/Contents/Resources/gluon/packages/dal/pydal/adapters/base.py", line 763, in select\n    return self._select_aux(sql, fields, attributes, colnames)\n  File "/Users/zadok/Desktop/Codetrain/web2py.app/Contents/Resources/gluon/packages/dal/pydal/adapters/base.py", line 742, in _select_aux\n    return processor(rows, fields, colnames, cacheable=cacheable)\n  File "/Users/zadok/Desktop/Codetrain/web2py.app/Contents/Resources/gluon/packages/dal/pydal/adapters/base.py", line 306, in parse\n    for row in rows\n  File "/Users/zadok/Desktop/Codetrain/web2py.app/Contents/Resources/gluon/packages/dal/pydal/adapters/base.py", line 232, in _parse\n    value = self.parse_value(value, fit, ft, blob_decode)\n  File "/Users/zadok/Desktop/Codetrain/web2py.app/Contents/Resources/gluon/packages/dal/pydal/adapters/base.py", line 199, in parse_value\n    return self.parser.parse(value, field_itype, field_type)\n  File "/Users/zadok/Desktop/Codetrain/web2py.app/Contents/Resources/gluon/packages/dal/pydal/parsers/__init__.py", line 101, in parse\n    return self.registered[field_itype](value, field_type)\n  File "/Users/zadok/Desktop/Codetrain/web2py.app/Contents/Resources/gluon/packages/dal/pydal/parsers/__init__.py", line 76, in __call__\n    return self.call(value, field_type)\n  File "/Users/zadok/Desktop/Codetrain/web2py.app/Contents/Resources/gluon/packages/dal/pydal/parsers/__init__.py", line 73, in _call\n    return self.f(self.parser, value)\n  File "/Users/zadok/Desktop/Codetrain/web2py.app/Contents/Resources/gluon/packages/dal/pydal/parsers/base.py", line 29, in _double\n    return self.registered[\'float\'](value, \'double\')\n  File "/Users/zadok/Desktop/Codetrain/web2py.app/Contents/Resources/gluon/packages/dal/pydal/parsers/__init__.py", line 76, in __call__\n    return self.call(value, field_type)\n  File "/Users/zadok/Desktop/Codetrain/web2py.app/Contents/Resources/gluon/packages/dal/pydal/parsers/__init__.py", line 73, in _call\n    return self.f(self.parser, value)\n  File "/Users/zadok/Desktop/Codetrain/web2py.app/Contents/Resources/gluon/packages/dal/pydal/parsers/base.py", line 25, in _float\n    return float(value)\nValueError: invalid literal for float(): 400ghc\n'
p494
s.