(dp1
S'output'
p2
S'missing "pass" in view'
p3
sS'layer'
p4
S'ParserContainer'
p5
sS'code'
p6
S'response.write(\'<!DOCTYPE html>\\n<html lang="en">\\n\\n<head>\\n    <meta charset="utf-8" />\\n    <link rel="apple-touch-icon" sizes="76x76" href="../assets/img/apple-icon.png">\\n    <link rel="icon" type="image/png" href="../assets/img/favicon.ico">\\n    <meta http-equiv="X-UA-Compatible" content="IE=edge,chrome=1" />\\n    <title>Light Bootstrap Dashboard - Free Bootstrap 4 Admin Dashboard by Creative Tim</title>\\n    <meta content=\\\'width=device-width, initial-scale=1.0, maximum-scale=1.0, user-scalable=0, shrink-to-fit=no\\\' name=\\\'viewport\\\' />\\n    <!--     Fonts and icons     -->\\n    <link href="https://fonts.googleapis.com/css?family=Montserrat:400,700,200" rel="stylesheet" />\\n    <link rel="stylesheet" href="https://maxcdn.bootstrapcdn.com/font-awesome/latest/css/font-awesome.min.css" />\\n    <!-- CSS Files -->\\n    <link rel="stylesheet" href="\', escape=False)\nresponse.write(URL(\'static\',\'css/bootstrap.min.css\'))\nresponse.write(\'" />\\n    <!-- <link href="../assets/css/light-bootstrap-dashboard.css?v=2.0.1" rel="stylesheet" /> -->\\n    <link rel="stylesheet" href="\', escape=False)\nresponse.write(URL(\'static\',\'css/light-bootstrap-dashboard.css\'))\nresponse.write(\'" />\\n\\n\\n</head>\\n\\n<body>\\n    <div class="wrapper">\\n        <div class="sidebar" data-color="blue" data-image="\', escape=False)\nresponse.write(URL(\'static\',\'images/sidebar-5.jpg\'))\nresponse.write(\'">\\n            <!--\\n        Tip 1: You can change the color of the sidebar using: data-color="purple | blue | green | orange | red"\\n\\n        Tip 2: you can also add an image using data-image tag\\n    -->\\n            <div class="sidebar-wrapper">\\n                <div class="logo">\\n                    <a href="" class="simple-text">\\n                        Loan Tracker\\n                    </a>\\n                </div>\\n                <ul class="nav">\\n                    <li>\\n                        <a class="nav-link" href="\', escape=False)\nresponse.write(URL(\'index\'))\nresponse.write(\'">\\n                            <i class="fa fa-th"></i>\\n                            <p>View All Loans</p>\\n                        </a>\\n                    </li>\\n                    <li>\\n                        <a class="nav-link" href="\', escape=False)\nresponse.write(URL(\'addLoanee\'))\nresponse.write(\'">\\n                            <i class="fa fa-user-plus"></i>\\n                            <p>Add New Loan</p>\\n                        </a>\\n                    </li>\\n\\n                </ul>\\n            </div>\\n        </div>\\n        <div class="main-panel">\\n            <!-- Navbar -->\\n            <nav class="navbar navbar-expand-lg " color-on-scroll="500">\\n                <div class=" container-fluid  ">\\n                    <a class="navbar-brand" href=""> </a>\\n                    <button href="" class="navbar-toggler navbar-toggler-right" type="button" data-toggle="collapse" aria-controls="navigation-index" aria-expanded="false" aria-label="Toggle navigation">\\n                        <span class="navbar-toggler-bar burger-lines"></span>\\n                        <span class="navbar-toggler-bar burger-lines"></span>\\n                        <span class="navbar-toggler-bar burger-lines"></span>\\n                    </button>\\n                    <div class="collapse navbar-collapse justify-content-end" id="navigation">\\n                      \', escape=False)\nif \'auth\' in globals():\n    response.write(\'\\n                      <ul class="nav navbar-nav ml-auto w-100 justify-content-end">\\n                        <li class="nav-item dropdown">\\n                          <a class="nav-link dropdown-toggle" href="#" data-toggle="dropdown" aria-haspopup="true" aria-expanded="false">\\n                            \', escape=False)\n    if auth.user:\n        response.write(auth.user.first_name)\n    else:\n        response.write(\'LOGIN\', escape=False)\n        pass\n    response.write(\'\\n                          </a>\\n                          <div class="dropdown-menu dropdown-menu-right" >\\n                            \', escape=False)\n    if auth.user:\n        response.write(\'\\n                            <a class="dropdown-item" href="\', escape=False)\n        response.write(URL(\'default\',\'user/profile\'))\n        response.write(\'">\', escape=False)\n        response.write(T(\'Profile\'))\n        response.write(\'</a>\\n                            \', escape=False)\n        if \'change_password\' not in auth.settings.actions_disabled:\n            response.write(\'\\n                            <a class="dropdown-item" href="\', escape=False)\n            response.write(URL(\'default\',\'user/change_password\'))\n            response.write(\'">\', escape=False)\n            response.write(T(\'Change Password\'))\n            response.write(\'</a>\\n                            \', escape=False)\n            pass\n        response.write(\'\\n                            <a class="dropdown-item" href="\', escape=False)\n        response.write(URL(\'default\',\'user/logout\'))\n        response.write(\'">\', escape=False)\n        response.write(T(\'Logout\'))\n        response.write(\'</a>\\n                            \', escape=False)\n    else:\n        response.write(\'\\n                            <a class="dropdown-item" href="\', escape=False)\n        response.write(URL(\'default\',\'user/login\'))\n        response.write(\'">\', escape=False)\n        response.write(T(\'Login\'))\n        response.write(\'</a>\\n                            \', escape=False)\n        if \'register\' not in auth.settings.actions_disabled:\n            response.write(\'\\n                            <a class="dropdown-item" href="\', escape=False)\n            response.write(URL(\'default\',\'user/register\'))\n            response.write(\'">\', escape=False)\n            response.write(T(\'Sign up\'))\n            response.write(\'</a>\\n                            \', escape=False)\n            pass\n        response.write(\'\\n                            \', escape=False)\n        if \'retrieve_password\' not in auth.settings.actions_disabled:\n            response.write(\'\\n                            <a class="dropdown-item" href="\', escape=False)\n            response.write(URL(\'default\',\'user/retrieve_password\'))\n            response.write(\'">\', escape=False)\n            response.write(T(\'Lost Password\'))\n            response.write(\'</a>\\n                            \', escape=False)\n            pass\n        response.write(\'\\n                            \', escape=False)\n        pass\n    response.write(\'\\n                          </div>\\n                        </li>\\n                        <li class="nav-item">\\n                          \', escape=False)\n    if auth.user:\n        response.write(\'\\n                          <a class="dropdown-item" href="\', escape=False)\n        response.write(URL(\'default\',\'user/profile\'))\n        response.write(\'">\', escape=False)\n        response.write(T(\'Profile\'))\n        response.write(\'</a>\\n                          \', escape=False)\n        if \'change_password\' not in auth.settings.actions_disabled:\n            response.write(\'\\n                          <a class="dropdown-item" href="\', escape=False)\n            response.write(URL(\'default\',\'user/change_password\'))\n            response.write(\'">\', escape=False)\n            response.write(T(\'Change Password\'))\n            response.write(\'</a>\\n                          \', escape=False)\n            pass\n        response.write(\'\\n                        </li>\\n                      </ul>\\n                      \', escape=False)\n        pass\n    response.write(\'\\n                    </div>\\n\\n                </div>\\n            </nav>\\n            <!-- End Navbar -->\\n            <div class="content">\\n                <div class="container-fluid">\\n                    <div class="row">\\n                        <div class="col-md-12">\\n                            <div class="card striped-tabled-with-hover">\\n                                <div class="card-header ">\\n                                    <h4 class="card-title">Striped Table with Hover</h4>\\n                                    <p class="card-category">Here is a subtitle for this table</p>\\n                                </div>\\n                                <div class="card-body table-full-width table-responsive">\\n                                  \', escape=False)\n    response.write(\'\\n\\n<a href="\', escape=False)\n    response.write(URL(\'addLoanee\'))\n    response.write(\'"><button type="button" class="btn btn-secondary mb-4"><span class="fa fa-plus">Add Loanee</span></button></a>\\n\\n<table class="table table-hover table-striped">\\n  <thead>\\n    <tr>\\n      <th scope="col">Loanee Name</th>\\n      <th scope="col">Loanee Contact</th>\\n      <th scope="col">Amount Loaned</th>\\n      <th scope="col">Loanee Address</th>\\n      <th scope="col">Due Date</th>\\n      <th scope="col"></th>\\n    </tr>\\n  </thead>\\n\\n\\n      <tbody>\\n        \', escape=False)\n    if loans:\n        response.write(\'\\n          \', escape=False)\n        for loans in loans:\n            response.write(\'\\n            <tr>\\n              <td>\', escape=False)\n            response.write(loans.loaneeName)\n            response.write(\'</td>\\n              <td>\', escape=False)\n            response.write(loans.loaneeContact)\n            response.write(\'</td>\\n              <td>\', escape=False)\n            response.write(loans.amountLoaned)\n            response.write(\'</td>\\n              <td>\', escape=False)\n            response.write(loans.loaneeAddress)\n            response.write(\'</td>\\n              <td>\', escape=False)\n            response.write(loans.dueDate)\n            response.write(\'</td>\\n              <td> <div class="btn-group">\\n                      <a href="\', escape=False)\n            response.write(URL(\'viewLoanee\', args=loans.id))\n            response.write(\'" class="m-1"><button type="button" class="btn btn-secondary"><span class="fa fa-search">View</span></button></a>\\n                      <a href="\', escape=False)\n            response.write(URL(\'editLoan\', args=loans.id))\n            response.write(\'" class="m-1"><button type="button" class="btn btn-secondary"><span class="fa fa-pencil">Edit</span></button></a>\\n                      <a href="\', escape=False)\n            response.write(URL(\'deleteLoan\', args=loans.id))\n            response.write(\'" class="m-1"><button type="button" class="btn btn-secondary"><span class="fa fa-trash" >Delete</span></button></a>\\n                   </div>\\n              </td>\\n            </tr>\\n        \', escape=False)\n            pass\n        response.write(\'\\n        \', escape=False)\n        pass\n    response.write(\'\\n      </tbody>\\n</table>\\n\', escape=False)\n    response.write(\'\\n                                </div>\\n                            </div>\\n                        </div>\\n\\n                    </div>\\n                </div>\\n            </div>\\n            <footer class="footer">\\n                <div class="container">\\n                    <nav>\\n\\n                        <p class="copyright text-center">\\n                            \\xc2\\xa9\\n                            <script>\\n                                document.write(new Date().getFullYear())\\n                            </script>\\n                            <a href="http://www.creative-tim.com">Creative Tim</a>\\n                        </p>\\n                    </nav>\\n                </div>\\n            </footer>\\n        </div>\\n    </div>\\n    <!--   -->\\n\\n</body>\\n<!--   Core JS Files   -->\\n<!-- <script src="../assets/js/core/jquery.3.2.1.min.js" type="text/javascript"></script> -->\\n<!-- <script src="../assets/js/core/popper.min.js" type="text/javascript"></script> -->\\n<script src="\', escape=False)\n    response.write(URL(\'static\',\'js/bootstrap.min.js\'))\n    response.write(\'"></script>\\n<script src="\', escape=False)\n    response.write(URL(\'static\',\'js/jquery.3.2.1.min.js\'))\n    response.write(\'"></script>\\n<script src="\', escape=False)\n    response.write(URL(\'static\',\'js/popper.min.js\'))\n    response.write(\'"></script>\\n\\n\\n\\n<!--  Plugin for Switches, full documentation here: http://www.jque.re/plugins/version3/bootstrap.switch/ -->\\n<script src="../assets/js/plugins/bootstrap-switch.js"></script>\\n<!--  Google Maps Plugin    -->\\n<script type="text/javascript" src="https://maps.googleapis.com/maps/api/js?key=YOUR_KEY_HERE"></script>\\n<!--  Chartist Plugin  -->\\n<script src="../assets/js/plugins/chartist.min.js"></script>\\n<!--  Notifications Plugin    -->\\n<script src="../assets/js/plugins/bootstrap-notify.js"></script>\\n<!-- Control Center for Light Bootstrap Dashboard: scripts for the example pages etc -->\\n<script src="../assets/js/light-bootstrap-dashboard.js?v=2.0.1" type="text/javascript"></script>\\n\\n\\n</html>\\n\', escape=False)'
p7
sS'snapshot'
p8
(dp9
S'exception'
p10
(dp11
S'__module__'
p12
S"'gluon.rocket'"
p13
sS'__getslice__'
p14
S"<method-wrapper '__getslice__' of SocketTimeout object>"
p15
sS'__str__'
p16
S"<method-wrapper '__str__' of SocketTimeout object>"
p17
sS'__reduce__'
p18
S'<built-in method __reduce__ of SocketTimeout object>'
p19
sS'__dict__'
p20
S'{}'
p21
sS'__sizeof__'
p22
S'<built-in method __sizeof__ of SocketTimeout object>'
p23
sS'__weakref__'
p24
S'None'
p25
sS'message'
p26
S"'Socket timed out before request.'"
p27
sS'__init__'
p28
S"<method-wrapper '__init__' of SocketTimeout object>"
p29
sS'__setattr__'
p30
S"<method-wrapper '__setattr__' of SocketTimeout object>"
p31
sS'__reduce_ex__'
p32
S'<built-in method __reduce_ex__ of SocketTimeout object>'
p33
sS'__new__'
p34
S'<built-in method __new__ of type object>'
p35
sS'__format__'
p36
S'<built-in method __format__ of SocketTimeout object>'
p37
sS'__class__'
p38
S"<class 'gluon.rocket.SocketTimeout'>"
p39
sS'__doc__'
p40
S"'Exception for when a socket times out between requests.'"
p41
sS'__getitem__'
p42
S"<method-wrapper '__getitem__' of SocketTimeout object>"
p43
sS'__setstate__'
p44
S'<built-in method __setstate__ of SocketTimeout object>'
p45
sS'__getattribute__'
p46
S"<method-wrapper '__getattribute__' of SocketTimeout object>"
p47
sS'args'
p48
S"('Socket timed out before request.',)"
p49
sS'__subclasshook__'
p50
S'<built-in method __subclasshook__ of type object>'
p51
sS'__unicode__'
p52
S'<built-in method __unicode__ of SocketTimeout object>'
p53
sS'__delattr__'
p54
S"<method-wrapper '__delattr__' of SocketTimeout object>"
p55
sS'__repr__'
p56
S"<method-wrapper '__repr__' of SocketTimeout object>"
p57
sS'__hash__'
p58
S"<method-wrapper '__hash__' of SocketTimeout object>"
p59
ssS'evalue'
p60
S'Socket timed out before request.'
p61
sS'frames'
p62
(lp63
(dp64
S'file'
p65
S'/Users/zadok/Desktop/Codetrain/web2py.app/Contents/Resources/gluon/rocket.py'
p66
sS'dump'
p67
(dp68
S'self'
p69
S'<WSGIWorker(Thread-4, started daemon 123145516380160)>'
p70
sS'conn'
p71
S'<gluon.rocket.Connection object>'
p72
sS'self.run_app'
p73
S'<bound method WSGIWorker.run_app of <WSGIWorker(Thread-4, started daemon 123145516380160)>>'
p74
ssS'lnum'
p75
I1319
sS'lines'
p76
(dp77
I1314
S'            # Enter connection serve loop'
p78
sI1315
S'            while True:'
p79
sI1316
S'                if __debug__:'
p80
sI1317
S"                    self.err_log.debug('Serving a request')"
p81
sI1318
S'                try:'
p82
sI1319
S'                    self.run_app(conn)'
p83
sI1320
S'                except:'
p84
sI1321
S'                    exc = sys.exc_info()'
p85
sI1322
S'                    handled = self._handleError(*exc)'
p86
sI1323
S'                    if handled:'
p87
ssS'call'
p88
S'(self=<WSGIWorker(Thread-4, started daemon 123145516380160)>)'
p89
sS'func'
p90
S'run'
p91
sa(dp92
g65
S'/Users/zadok/Desktop/Codetrain/web2py.app/Contents/Resources/gluon/rocket.py'
p93
sg67
(dp94
S'self'
p95
S'<WSGIWorker(Thread-4, started daemon 123145516380160)>'
p96
sS'self.environ'
p97
S"{'HTTP_ACCEPT': 'text/html,application/xhtml+xml,application/xml;q=0.9,*/*;q=0.8', 'HTTP_ACCEPT_ENCODING': 'gzip, deflate', 'HTTP_ACCEPT_LANGUAGE': 'en-us', 'HTTP_CONNECTION': 'keep-alive', 'HTTP_COOKIE': 'session_id_loantracker=127.0.0.1-ea7262f9-6aab-4...me=127.0.0.1-cc5a025f-54f2-431f-a440-0ead9dd30fa8', 'HTTP_DNT': '1', 'HTTP_HOST': '127.0.0.1:8000', 'HTTP_ORIGIN': 'http://127.0.0.1:8000', 'HTTP_REFERER': 'http://127.0.0.1:8000/loanTracker/default/user/login?_next=/loanTracker/default/index', 'HTTP_UPGRADE_INSECURE_REQUESTS': '1', ...}"
p98
sS'sock_file'
p99
S'<socket._fileobject object>'
p100
sS'environ'
p101
S'undefined'
p102
sS'self.build_environ'
p103
S'<bound method WSGIWorker.build_environ of <WSGIWorker(Thread-4, started daemon 123145516380160)>>'
p104
sS'conn'
p105
S'<gluon.rocket.Connection object>'
p106
ssg75
I1812
sg76
(dp107
I1807
S'        else:'
p108
sI1808
S'            sock_file = conn.makefile(BUF_SIZE)'
p109
sI1809
S''
sI1810
S'        try:'
p110
sI1811
S'            # Read the headers and build our WSGI environment'
p111
sI1812
S'            self.environ = environ = self.build_environ(sock_file, conn)'
p112
sI1813
S''
sI1814
S'            # Handle 100 Continue'
p113
sI1815
S"            if environ.get('HTTP_EXPECT', '') == '100-continue':"
p114
sI1816
S"                res = environ['SERVER_PROTOCOL'] + ' 100 Continue\\r\\n\\r\\n'"
p115
ssg88
S'(self=<WSGIWorker(Thread-4, started daemon 123145516380160)>, conn=<gluon.rocket.Connection object>)'
p116
sg90
S'run_app'
p117
sa(dp118
g65
S'/Users/zadok/Desktop/Codetrain/web2py.app/Contents/Resources/gluon/rocket.py'
p119
sg67
(dp120
S'sock_file'
p121
S'<socket._fileobject object>'
p122
sS'self.read_request_line'
p123
S'<bound method WSGIWorker.read_request_line of <W...orker(Thread-4, started daemon 123145516380160)>>'
p124
sS'self'
p125
S'<WSGIWorker(Thread-4, started daemon 123145516380160)>'
p126
sS'request'
p127
g102
ssg75
I1632
sg76
(dp128
I1632
S'        request = self.read_request_line(sock_file)'
p129
sI1633
S''
sI1634
S'        # Copy the Base Environment'
p130
sI1635
S'        environ = self.base_environ.copy()'
p131
sI1636
S''
sI1627
S'                                      "wsgiorg.futures": executor.futures})'
p132
sI1628
S''
sI1629
S'    def build_environ(self, sock_file, conn):'
p133
sI1630
S'        """ Build the execution environment. """'
p134
sI1631
S'        # Grab the request line'
p135
ssg88
S'(self=<WSGIWorker(Thread-4, started daemon 123145516380160)>, sock_file=<socket._fileobject object>, conn=<gluon.rocket.Connection object>)'
p136
sg90
S'build_environ'
p137
sa(dp138
g65
S'/Users/zadok/Desktop/Codetrain/web2py.app/Contents/Resources/gluon/rocket.py'
p139
sg67
(dp140
S'global SocketTimeout'
p141
S"<class 'gluon.rocket.SocketTimeout'>"
p142
ssg75
I1383
sg76
(dp143
I1378
S''
sI1379
S'                d = sock_file.readline()'
p144
sI1380
S'                if PY3K:'
p145
sI1381
S"                    d = d.decode('ISO-8859-1')"
p146
sI1382
S'        except socket.timeout:'
p147
sI1383
S"            raise SocketTimeout('Socket timed out before request.')"
p148
sI1384
S'        except TypeError:'
p149
sI1385
S'            raise SocketClosed('
p150
sI1386
S"                'SSL bug caused closure of socket.  See '"
p151
sI1387
S'                \'"https://groups.google.com/d/topic/web2py/P_Gw0JxWzCs".\')'
p152
ssg88
S'(self=<WSGIWorker(Thread-4, started daemon 123145516380160)>, sock_file=<socket._fileobject object>)'
p153
sg90
S'read_request_line'
p154
sasS'pyver'
p155
S'Python 2.7.15: /usr/local/opt/python@2/bin/python2.7 (prefix: /usr/local/Cellar/python@2/2.7.15_2/Frameworks/Python.framework/Versions/2.7)'
p156
sS'etype'
p157
S"<class 'gluon.rocket.SocketTimeout'>"
p158
sS'date'
p159
S'Thu Feb 14 10:28:32 2019'
p160
sS'locals'
p161
(dp162
S'sock_file'
p163
S'<socket._fileobject object>'
p164
sS'self'
p165
S'<WSGIWorker(Thread-4, started daemon 123145516380160)>'
p166
sssS'traceback'
p167
S'Traceback (most recent call last):\n  File "/Users/zadok/Desktop/Codetrain/web2py.app/Contents/Resources/gluon/rocket.py", line 1319, in run\n    self.run_app(conn)\n  File "/Users/zadok/Desktop/Codetrain/web2py.app/Contents/Resources/gluon/rocket.py", line 1812, in run_app\n    self.environ = environ = self.build_environ(sock_file, conn)\n  File "/Users/zadok/Desktop/Codetrain/web2py.app/Contents/Resources/gluon/rocket.py", line 1632, in build_environ\n    request = self.read_request_line(sock_file)\n  File "/Users/zadok/Desktop/Codetrain/web2py.app/Contents/Resources/gluon/rocket.py", line 1383, in read_request_line\n    raise SocketTimeout(\'Socket timed out before request.\')\nSocketTimeout: Socket timed out before request.\n'
p168
s.